ARM GAS  C:\Users\Lenovo\AppData\Local\Temp\cce7OzAT.s 			page 1


   1              		.syntax unified
   2              		.cpu cortex-m0plus
   3              		.fpu softvfp
   4              		.eabi_attribute 20, 1
   5              		.eabi_attribute 21, 1
   6              		.eabi_attribute 23, 3
   7              		.eabi_attribute 24, 1
   8              		.eabi_attribute 25, 1
   9              		.eabi_attribute 26, 1
  10              		.eabi_attribute 30, 1
  11              		.eabi_attribute 34, 0
  12              		.eabi_attribute 18, 4
  13              		.thumb
  14              		.syntax unified
  15              		.file	"BUTTON_Structure.c"
  16              		.text
  17              	.Ltext0:
  18              		.cfi_sections	.debug_frame
  19              		.section	.text.DsParseParamId,"ax",%progbits
  20              		.align	2
  21              		.code	16
  22              		.thumb_func
  23              		.type	DsParseParamId, %function
  24              	DsParseParamId:
  25              	.LFB2:
  26              		.file 1 "Generated_Source\\PSoC4\\BUTTON_Structure.c"
   1:Generated_Source\PSoC4/BUTTON_Structure.c **** /***************************************************************************//**
   2:Generated_Source\PSoC4/BUTTON_Structure.c **** * \file BUTTON_Structure.c
   3:Generated_Source\PSoC4/BUTTON_Structure.c **** * \version 7.0
   4:Generated_Source\PSoC4/BUTTON_Structure.c **** *
   5:Generated_Source\PSoC4/BUTTON_Structure.c **** * \brief
   6:Generated_Source\PSoC4/BUTTON_Structure.c **** *   This file defines the data structure global variables and provides implementation
   7:Generated_Source\PSoC4/BUTTON_Structure.c **** *   for the high-level and low-level APIs of the Data Structure module.
   8:Generated_Source\PSoC4/BUTTON_Structure.c **** *
   9:Generated_Source\PSoC4/BUTTON_Structure.c **** * \see BUTTON v7.0 Datasheet
  10:Generated_Source\PSoC4/BUTTON_Structure.c **** *
  11:Generated_Source\PSoC4/BUTTON_Structure.c **** *//*****************************************************************************
  12:Generated_Source\PSoC4/BUTTON_Structure.c **** * Copyright (2016-2019), Cypress Semiconductor Corporation.
  13:Generated_Source\PSoC4/BUTTON_Structure.c **** ********************************************************************************
  14:Generated_Source\PSoC4/BUTTON_Structure.c **** * This software is owned by Cypress Semiconductor Corporation (Cypress) and is
  15:Generated_Source\PSoC4/BUTTON_Structure.c **** * protected by and subject to worldwide patent protection (United States and
  16:Generated_Source\PSoC4/BUTTON_Structure.c **** * foreign), United States copyright laws and international treaty provisions.
  17:Generated_Source\PSoC4/BUTTON_Structure.c **** * Cypress hereby grants to licensee a personal, non-exclusive, non-transferable
  18:Generated_Source\PSoC4/BUTTON_Structure.c **** * license to copy, use, modify, create derivative works of, and compile the
  19:Generated_Source\PSoC4/BUTTON_Structure.c **** * Cypress Source Code and derivative works for the sole purpose of creating
  20:Generated_Source\PSoC4/BUTTON_Structure.c **** * custom software in support of licensee product to be used only in conjunction
  21:Generated_Source\PSoC4/BUTTON_Structure.c **** * with a Cypress integrated circuit as specified in the applicable agreement.
  22:Generated_Source\PSoC4/BUTTON_Structure.c **** * Any reproduction, modification, translation, compilation, or representation of
  23:Generated_Source\PSoC4/BUTTON_Structure.c **** * this software except as specified above is prohibited without the express
  24:Generated_Source\PSoC4/BUTTON_Structure.c **** * written permission of Cypress.
  25:Generated_Source\PSoC4/BUTTON_Structure.c **** *
  26:Generated_Source\PSoC4/BUTTON_Structure.c **** * Disclaimer: CYPRESS MAKES NO WARRANTY OF ANY KIND, EXPRESS OR IMPLIED, WITH
  27:Generated_Source\PSoC4/BUTTON_Structure.c **** * REGARD TO THIS MATERIAL, INCLUDING, BUT NOT LIMITED TO, THE IMPLIED
  28:Generated_Source\PSoC4/BUTTON_Structure.c **** * WARRANTIES OF MERCHANTABILITY AND FITNESS FOR A PARTICULAR PURPOSE.
  29:Generated_Source\PSoC4/BUTTON_Structure.c **** * Cypress reserves the right to make changes without further notice to the
  30:Generated_Source\PSoC4/BUTTON_Structure.c **** * materials described herein. Cypress does not assume any liability arising out
  31:Generated_Source\PSoC4/BUTTON_Structure.c **** * of the application or use of any product or circuit described herein. Cypress
ARM GAS  C:\Users\Lenovo\AppData\Local\Temp\cce7OzAT.s 			page 2


  32:Generated_Source\PSoC4/BUTTON_Structure.c **** * does not authorize its products for use as critical components in life-support
  33:Generated_Source\PSoC4/BUTTON_Structure.c **** * systems where a malfunction or failure may reasonably be expected to result in
  34:Generated_Source\PSoC4/BUTTON_Structure.c **** * significant injury to the user. The inclusion of Cypress' product in a life-
  35:Generated_Source\PSoC4/BUTTON_Structure.c **** * support systems application implies that the manufacturer assumes all risk of
  36:Generated_Source\PSoC4/BUTTON_Structure.c **** * such use and in doing so indemnifies Cypress against all charges. Use may be
  37:Generated_Source\PSoC4/BUTTON_Structure.c **** * limited by and subject to the applicable Cypress software license agreement.
  38:Generated_Source\PSoC4/BUTTON_Structure.c **** *******************************************************************************/
  39:Generated_Source\PSoC4/BUTTON_Structure.c **** 
  40:Generated_Source\PSoC4/BUTTON_Structure.c **** #include <cytypes.h>
  41:Generated_Source\PSoC4/BUTTON_Structure.c **** #include "CyLib.h"
  42:Generated_Source\PSoC4/BUTTON_Structure.c **** #include "BUTTON_Structure.h"
  43:Generated_Source\PSoC4/BUTTON_Structure.c **** #include "BUTTON_Configuration.h"
  44:Generated_Source\PSoC4/BUTTON_Structure.c **** 
  45:Generated_Source\PSoC4/BUTTON_Structure.c **** #if (0u != BUTTON_ADC_EN)
  46:Generated_Source\PSoC4/BUTTON_Structure.c ****     #include "BUTTON_Adc.h"
  47:Generated_Source\PSoC4/BUTTON_Structure.c **** #endif /* (0u != BUTTON_ADC_EN) */
  48:Generated_Source\PSoC4/BUTTON_Structure.c **** 
  49:Generated_Source\PSoC4/BUTTON_Structure.c **** #if (BUTTON_ENABLE == BUTTON_SELF_TEST_EN)
  50:Generated_Source\PSoC4/BUTTON_Structure.c ****     #include "BUTTON_SelfTest.h"
  51:Generated_Source\PSoC4/BUTTON_Structure.c **** #endif
  52:Generated_Source\PSoC4/BUTTON_Structure.c **** 
  53:Generated_Source\PSoC4/BUTTON_Structure.c **** #if (BUTTON_ENABLE == BUTTON_CENTROID_5X5_CSD_EN)
  54:Generated_Source\PSoC4/BUTTON_Structure.c ****     #include "BUTTON_AdvancedCentroid_LL.h"
  55:Generated_Source\PSoC4/BUTTON_Structure.c **** #endif
  56:Generated_Source\PSoC4/BUTTON_Structure.c **** 
  57:Generated_Source\PSoC4/BUTTON_Structure.c **** #if (BUTTON_ENABLE == BUTTON_GES_GLOBAL_EN)
  58:Generated_Source\PSoC4/BUTTON_Structure.c ****     #include "BUTTON_Gesture.h"
  59:Generated_Source\PSoC4/BUTTON_Structure.c **** #endif /* (BUTTON_ENABLE == BUTTON_GES_GLOBAL_EN) */
  60:Generated_Source\PSoC4/BUTTON_Structure.c **** 
  61:Generated_Source\PSoC4/BUTTON_Structure.c **** /*******************************************************************************
  62:Generated_Source\PSoC4/BUTTON_Structure.c **** * Defines the RAM Data Structure variables and their init data in flash
  63:Generated_Source\PSoC4/BUTTON_Structure.c **** *******************************************************************************/
  64:Generated_Source\PSoC4/BUTTON_Structure.c **** /**
  65:Generated_Source\PSoC4/BUTTON_Structure.c **** * \cond SECTION_GLOBAL_VARIABLES
  66:Generated_Source\PSoC4/BUTTON_Structure.c **** * \addtogroup group_global_variables
  67:Generated_Source\PSoC4/BUTTON_Structure.c **** * \{
  68:Generated_Source\PSoC4/BUTTON_Structure.c **** */
  69:Generated_Source\PSoC4/BUTTON_Structure.c **** 
  70:Generated_Source\PSoC4/BUTTON_Structure.c **** /**
  71:Generated_Source\PSoC4/BUTTON_Structure.c **** * The variable that contains the BUTTON configuration, settings and
  72:Generated_Source\PSoC4/BUTTON_Structure.c **** * scanning results. BUTTON_dsRam represents RAM Data Structure.
  73:Generated_Source\PSoC4/BUTTON_Structure.c **** */
  74:Generated_Source\PSoC4/BUTTON_Structure.c **** BUTTON_RAM_STRUCT BUTTON_dsRam;
  75:Generated_Source\PSoC4/BUTTON_Structure.c **** /** \}
  76:Generated_Source\PSoC4/BUTTON_Structure.c **** * \endcond */
  77:Generated_Source\PSoC4/BUTTON_Structure.c **** 
  78:Generated_Source\PSoC4/BUTTON_Structure.c **** /*******************************************************************************
  79:Generated_Source\PSoC4/BUTTON_Structure.c **** * Declares Widget's De-bounce Counters
  80:Generated_Source\PSoC4/BUTTON_Structure.c **** *******************************************************************************/
  81:Generated_Source\PSoC4/BUTTON_Structure.c **** static uint8 BUTTON_debounceButton0[BUTTON_BUTTON0_NUM_SENSORS];
  82:Generated_Source\PSoC4/BUTTON_Structure.c **** 
  83:Generated_Source\PSoC4/BUTTON_Structure.c **** 
  84:Generated_Source\PSoC4/BUTTON_Structure.c **** /***************************************************************************//**
  85:Generated_Source\PSoC4/BUTTON_Structure.c **** * Declares Noise Envelope data structures
  86:Generated_Source\PSoC4/BUTTON_Structure.c **** *******************************************************************************/
  87:Generated_Source\PSoC4/BUTTON_Structure.c **** static SMARTSENSE_CSD_NOISE_ENVELOPE_STRUCT BUTTON_noiseEnvlpButton0[BUTTON_BUTTON0_NUM_SENSORS];
  88:Generated_Source\PSoC4/BUTTON_Structure.c **** 
ARM GAS  C:\Users\Lenovo\AppData\Local\Temp\cce7OzAT.s 			page 3


  89:Generated_Source\PSoC4/BUTTON_Structure.c **** /*******************************************************************************
  90:Generated_Source\PSoC4/BUTTON_Structure.c **** * Defines and initializes the Flash Data Structure
  91:Generated_Source\PSoC4/BUTTON_Structure.c **** *******************************************************************************/
  92:Generated_Source\PSoC4/BUTTON_Structure.c **** 
  93:Generated_Source\PSoC4/BUTTON_Structure.c **** 
  94:Generated_Source\PSoC4/BUTTON_Structure.c **** 
  95:Generated_Source\PSoC4/BUTTON_Structure.c **** /**
  96:Generated_Source\PSoC4/BUTTON_Structure.c **** * \cond SECTION_API_CONSTANTS
  97:Generated_Source\PSoC4/BUTTON_Structure.c **** * \addtogroup group_api_constants
  98:Generated_Source\PSoC4/BUTTON_Structure.c **** * \{
  99:Generated_Source\PSoC4/BUTTON_Structure.c **** */
 100:Generated_Source\PSoC4/BUTTON_Structure.c **** /**
 101:Generated_Source\PSoC4/BUTTON_Structure.c **** * Constant for the FLASH Data Structure
 102:Generated_Source\PSoC4/BUTTON_Structure.c **** */
 103:Generated_Source\PSoC4/BUTTON_Structure.c **** const BUTTON_FLASH_STRUCT BUTTON_dsFlash =
 104:Generated_Source\PSoC4/BUTTON_Structure.c **** {
 105:Generated_Source\PSoC4/BUTTON_Structure.c ****     /* Flash Widget Initialization Data */
 106:Generated_Source\PSoC4/BUTTON_Structure.c ****     {
 107:Generated_Source\PSoC4/BUTTON_Structure.c ****         { /* Button0 */
 108:Generated_Source\PSoC4/BUTTON_Structure.c ****             &BUTTON_ioList[0u],
 109:Generated_Source\PSoC4/BUTTON_Structure.c ****             (void *)&BUTTON_dsRam.wdgtList.button0,
 110:Generated_Source\PSoC4/BUTTON_Structure.c ****             BUTTON_dsRam.snsList.button0,
 111:Generated_Source\PSoC4/BUTTON_Structure.c ****             (void *)0u,
 112:Generated_Source\PSoC4/BUTTON_Structure.c ****             BUTTON_debounceButton0,
 113:Generated_Source\PSoC4/BUTTON_Structure.c ****             BUTTON_BUTTON0_STATIC_CONFIG,
 114:Generated_Source\PSoC4/BUTTON_Structure.c ****             BUTTON_BUTTON0_NUM_SENSORS,
 115:Generated_Source\PSoC4/BUTTON_Structure.c ****             (uint8)BUTTON_WD_BUTTON_E,
 116:Generated_Source\PSoC4/BUTTON_Structure.c ****             BUTTON_BUTTON0_NUM_SENSORS,
 117:Generated_Source\PSoC4/BUTTON_Structure.c ****             BUTTON_noiseEnvlpButton0,
 118:Generated_Source\PSoC4/BUTTON_Structure.c ****         },
 119:Generated_Source\PSoC4/BUTTON_Structure.c ****     },
 120:Generated_Source\PSoC4/BUTTON_Structure.c **** };
 121:Generated_Source\PSoC4/BUTTON_Structure.c **** 
 122:Generated_Source\PSoC4/BUTTON_Structure.c **** /**
 123:Generated_Source\PSoC4/BUTTON_Structure.c **** * The array of the pointers to the electrode specific register.
 124:Generated_Source\PSoC4/BUTTON_Structure.c **** */
 125:Generated_Source\PSoC4/BUTTON_Structure.c **** const BUTTON_FLASH_IO_STRUCT BUTTON_ioList[BUTTON_TOTAL_ELECTRODES] =
 126:Generated_Source\PSoC4/BUTTON_Structure.c **** {
 127:Generated_Source\PSoC4/BUTTON_Structure.c ****     { /* 0: Button0_Sns0 */
 128:Generated_Source\PSoC4/BUTTON_Structure.c ****         (reg32 *)BUTTON_Sns__0__HSIOM,
 129:Generated_Source\PSoC4/BUTTON_Structure.c ****         (reg32 *)BUTTON_Sns__0__PC,
 130:Generated_Source\PSoC4/BUTTON_Structure.c ****         (reg32 *)BUTTON_Sns__0__DR,
 131:Generated_Source\PSoC4/BUTTON_Structure.c ****         (reg32 *)BUTTON_Sns__0__PS,
 132:Generated_Source\PSoC4/BUTTON_Structure.c ****         BUTTON_Sns__0__HSIOM_MASK,
 133:Generated_Source\PSoC4/BUTTON_Structure.c ****         BUTTON_Sns__0__MASK,
 134:Generated_Source\PSoC4/BUTTON_Structure.c ****         BUTTON_Sns__0__HSIOM_SHIFT,
 135:Generated_Source\PSoC4/BUTTON_Structure.c ****         (uint8)BUTTON_Sns__0__SHIFT,
 136:Generated_Source\PSoC4/BUTTON_Structure.c ****         (uint8)BUTTON_Sns__0__SHIFT * 3u,
 137:Generated_Source\PSoC4/BUTTON_Structure.c ****     },
 138:Generated_Source\PSoC4/BUTTON_Structure.c **** };
 139:Generated_Source\PSoC4/BUTTON_Structure.c **** 
 140:Generated_Source\PSoC4/BUTTON_Structure.c **** /**
 141:Generated_Source\PSoC4/BUTTON_Structure.c ****  *  The array of the pointers to the shield electrode specific register.
 142:Generated_Source\PSoC4/BUTTON_Structure.c ****  */
 143:Generated_Source\PSoC4/BUTTON_Structure.c **** const BUTTON_SHIELD_IO_STRUCT BUTTON_shieldIoList[BUTTON_CSD_TOTAL_SHIELD_COUNT] =
 144:Generated_Source\PSoC4/BUTTON_Structure.c **** {
 145:Generated_Source\PSoC4/BUTTON_Structure.c ****     {
ARM GAS  C:\Users\Lenovo\AppData\Local\Temp\cce7OzAT.s 			page 4


 146:Generated_Source\PSoC4/BUTTON_Structure.c ****         (reg32 *)BUTTON_Shield__0__HSIOM,
 147:Generated_Source\PSoC4/BUTTON_Structure.c ****         (reg32 *)BUTTON_Shield__0__PC,
 148:Generated_Source\PSoC4/BUTTON_Structure.c ****         (reg32 *)BUTTON_Shield__0__DR,
 149:Generated_Source\PSoC4/BUTTON_Structure.c ****         BUTTON_Shield__0__HSIOM_MASK,
 150:Generated_Source\PSoC4/BUTTON_Structure.c ****         BUTTON_Shield__0__HSIOM_SHIFT,
 151:Generated_Source\PSoC4/BUTTON_Structure.c ****         (uint8)BUTTON_Shield__0__SHIFT,
 152:Generated_Source\PSoC4/BUTTON_Structure.c ****         (uint8)BUTTON_Shield__0__SHIFT * 3u,
 153:Generated_Source\PSoC4/BUTTON_Structure.c ****     },
 154:Generated_Source\PSoC4/BUTTON_Structure.c **** };
 155:Generated_Source\PSoC4/BUTTON_Structure.c **** 
 156:Generated_Source\PSoC4/BUTTON_Structure.c **** 
 157:Generated_Source\PSoC4/BUTTON_Structure.c **** /** \}
 158:Generated_Source\PSoC4/BUTTON_Structure.c **** * \endcond */
 159:Generated_Source\PSoC4/BUTTON_Structure.c **** 
 160:Generated_Source\PSoC4/BUTTON_Structure.c **** /* Initialization data for RAM widget list */
 161:Generated_Source\PSoC4/BUTTON_Structure.c **** const BUTTON_RAM_WD_LIST_STRUCT BUTTON_ramWidgetInit =
 162:Generated_Source\PSoC4/BUTTON_Structure.c **** {
 163:Generated_Source\PSoC4/BUTTON_Structure.c ****     { /* Button0 */
 164:Generated_Source\PSoC4/BUTTON_Structure.c ****         BUTTON_BUTTON0_RESOLUTION,
 165:Generated_Source\PSoC4/BUTTON_Structure.c ****         BUTTON_BUTTON0_FINGER_TH,
 166:Generated_Source\PSoC4/BUTTON_Structure.c ****         BUTTON_BUTTON0_NOISE_TH,
 167:Generated_Source\PSoC4/BUTTON_Structure.c ****         BUTTON_BUTTON0_NNOISE_TH,
 168:Generated_Source\PSoC4/BUTTON_Structure.c ****         BUTTON_BUTTON0_HYSTERESIS,
 169:Generated_Source\PSoC4/BUTTON_Structure.c ****         BUTTON_BUTTON0_ON_DEBOUNCE,
 170:Generated_Source\PSoC4/BUTTON_Structure.c ****         BUTTON_BUTTON0_LOW_BSLN_RST,
 171:Generated_Source\PSoC4/BUTTON_Structure.c ****         {
 172:Generated_Source\PSoC4/BUTTON_Structure.c ****             BUTTON_BUTTON0_IDAC_MOD0,
 173:Generated_Source\PSoC4/BUTTON_Structure.c ****         },
 174:Generated_Source\PSoC4/BUTTON_Structure.c ****         BUTTON_BUTTON0_IDAC_GAIN_INDEX,
 175:Generated_Source\PSoC4/BUTTON_Structure.c ****         BUTTON_BUTTON0_SNS_CLK,
 176:Generated_Source\PSoC4/BUTTON_Structure.c ****         BUTTON_BUTTON0_SNS_CLK_SOURCE,
 177:Generated_Source\PSoC4/BUTTON_Structure.c ****         BUTTON_BUTTON0_FINGER_CAP,
 178:Generated_Source\PSoC4/BUTTON_Structure.c ****         BUTTON_BUTTON0_SIGPFC,
 179:Generated_Source\PSoC4/BUTTON_Structure.c ****     },
 180:Generated_Source\PSoC4/BUTTON_Structure.c **** };
 181:Generated_Source\PSoC4/BUTTON_Structure.c **** 
 182:Generated_Source\PSoC4/BUTTON_Structure.c **** 
 183:Generated_Source\PSoC4/BUTTON_Structure.c **** /* IDAC Initialization Data */
 184:Generated_Source\PSoC4/BUTTON_Structure.c **** const uint8 BUTTON_ramIdacInit[BUTTON_TOTAL_SENSORS] =
 185:Generated_Source\PSoC4/BUTTON_Structure.c **** {
 186:Generated_Source\PSoC4/BUTTON_Structure.c ****     /* Button0 */
 187:Generated_Source\PSoC4/BUTTON_Structure.c ****     BUTTON_BUTTON0_SNS0_IDAC_COMP0,
 188:Generated_Source\PSoC4/BUTTON_Structure.c **** };
 189:Generated_Source\PSoC4/BUTTON_Structure.c **** 
 190:Generated_Source\PSoC4/BUTTON_Structure.c **** 
 191:Generated_Source\PSoC4/BUTTON_Structure.c **** 
 192:Generated_Source\PSoC4/BUTTON_Structure.c **** 
 193:Generated_Source\PSoC4/BUTTON_Structure.c **** 
 194:Generated_Source\PSoC4/BUTTON_Structure.c **** /*******************************************************************************
 195:Generated_Source\PSoC4/BUTTON_Structure.c **** * Defines internal data types and statements
 196:Generated_Source\PSoC4/BUTTON_Structure.c **** *******************************************************************************/
 197:Generated_Source\PSoC4/BUTTON_Structure.c **** #define PARAM_TYPE_OFFSET       (30u)
 198:Generated_Source\PSoC4/BUTTON_Structure.c **** #define PARAM_TYPE_MASK         (3Lu << PARAM_TYPE_OFFSET)
 199:Generated_Source\PSoC4/BUTTON_Structure.c **** #define PARAM_RWBIT_OFFSET      (29u)
 200:Generated_Source\PSoC4/BUTTON_Structure.c **** #define PARAM_RWBIT_MASK        (1Lu << PARAM_RWBIT_OFFSET)
 201:Generated_Source\PSoC4/BUTTON_Structure.c **** #define PARAM_FBIT_OFFSET       (28u)
 202:Generated_Source\PSoC4/BUTTON_Structure.c **** #define PARAM_FBIT_MASK         (1Lu << PARAM_FBIT_OFFSET)
ARM GAS  C:\Users\Lenovo\AppData\Local\Temp\cce7OzAT.s 			page 5


 203:Generated_Source\PSoC4/BUTTON_Structure.c **** #define PARAM_UBIT_OFFSET       (23u)
 204:Generated_Source\PSoC4/BUTTON_Structure.c **** #define PARAM_UBIT_MASK         (1Lu << PARAM_UBIT_OFFSET)
 205:Generated_Source\PSoC4/BUTTON_Structure.c **** #define PARAM_WDID_OFFSET       (16u)
 206:Generated_Source\PSoC4/BUTTON_Structure.c **** #define PARAM_WDID_MASK         (0x7FLu << PARAM_WDID_OFFSET)
 207:Generated_Source\PSoC4/BUTTON_Structure.c **** #define PARAM_CRC_OFFSET        (24u)
 208:Generated_Source\PSoC4/BUTTON_Structure.c **** #define PARAM_CRC_MASK          (0x0FLu << PARAM_CRC_OFFSET)
 209:Generated_Source\PSoC4/BUTTON_Structure.c **** 
 210:Generated_Source\PSoC4/BUTTON_Structure.c **** /* Defines align masks for uint16 and uint32 */
 211:Generated_Source\PSoC4/BUTTON_Structure.c **** #define UINT16_ALIGN_MASK       (1Lu)
 212:Generated_Source\PSoC4/BUTTON_Structure.c **** #define UINT32_ALIGN_MASK       (3Lu)
 213:Generated_Source\PSoC4/BUTTON_Structure.c **** 
 214:Generated_Source\PSoC4/BUTTON_Structure.c **** /* Defines supported parameter types */
 215:Generated_Source\PSoC4/BUTTON_Structure.c **** #define DS_PARAM_TYPE_UINT8     (0x01u)
 216:Generated_Source\PSoC4/BUTTON_Structure.c **** #define DS_PARAM_TYPE_UINT16    (0x02u)
 217:Generated_Source\PSoC4/BUTTON_Structure.c **** #define DS_PARAM_TYPE_UINT32    (0x03u)
 218:Generated_Source\PSoC4/BUTTON_Structure.c **** 
 219:Generated_Source\PSoC4/BUTTON_Structure.c **** 
 220:Generated_Source\PSoC4/BUTTON_Structure.c **** /* Defines PARAM_ID structure */
 221:Generated_Source\PSoC4/BUTTON_Structure.c **** typedef struct
 222:Generated_Source\PSoC4/BUTTON_Structure.c **** {
 223:Generated_Source\PSoC4/BUTTON_Structure.c ****     uint16 offset;      /* parameter offset */
 224:Generated_Source\PSoC4/BUTTON_Structure.c ****     uint8  widgetId;    /* widget Id parameter belongs to */
 225:Generated_Source\PSoC4/BUTTON_Structure.c ****     uint8  affectsCrc;  /* parameter affects widget CRC */
 226:Generated_Source\PSoC4/BUTTON_Structure.c ****     uint8  crc;         /* parameter CRC */
 227:Generated_Source\PSoC4/BUTTON_Structure.c ****     uint8  flash;       /* parameter located in FLASH flag */
 228:Generated_Source\PSoC4/BUTTON_Structure.c ****     uint8  rw;          /* parameter is read/write flag */
 229:Generated_Source\PSoC4/BUTTON_Structure.c ****     uint8  type;        /* parameter type: uint8/uint16/uint32 */
 230:Generated_Source\PSoC4/BUTTON_Structure.c **** } PARAM_ID_STRUCT;
 231:Generated_Source\PSoC4/BUTTON_Structure.c **** 
 232:Generated_Source\PSoC4/BUTTON_Structure.c **** 
 233:Generated_Source\PSoC4/BUTTON_Structure.c **** /*******************************************************************************
 234:Generated_Source\PSoC4/BUTTON_Structure.c **** * Static Function Prototypes
 235:Generated_Source\PSoC4/BUTTON_Structure.c **** *******************************************************************************/
 236:Generated_Source\PSoC4/BUTTON_Structure.c **** /**
 237:Generated_Source\PSoC4/BUTTON_Structure.c **** * \cond SECTION_C_INTERNAL
 238:Generated_Source\PSoC4/BUTTON_Structure.c **** * \addtogroup group_c_internal
 239:Generated_Source\PSoC4/BUTTON_Structure.c **** * \{
 240:Generated_Source\PSoC4/BUTTON_Structure.c **** */
 241:Generated_Source\PSoC4/BUTTON_Structure.c **** 
 242:Generated_Source\PSoC4/BUTTON_Structure.c **** 
 243:Generated_Source\PSoC4/BUTTON_Structure.c **** 
 244:Generated_Source\PSoC4/BUTTON_Structure.c **** static cystatus DsParseParamId(uint32 paramId, PARAM_ID_STRUCT *pData);
 245:Generated_Source\PSoC4/BUTTON_Structure.c **** 
 246:Generated_Source\PSoC4/BUTTON_Structure.c **** /** \}
 247:Generated_Source\PSoC4/BUTTON_Structure.c **** * \endcond */
 248:Generated_Source\PSoC4/BUTTON_Structure.c **** 
 249:Generated_Source\PSoC4/BUTTON_Structure.c **** 
 250:Generated_Source\PSoC4/BUTTON_Structure.c **** /*******************************************************************************
 251:Generated_Source\PSoC4/BUTTON_Structure.c **** * Function Name: BUTTON_DsInitialize
 252:Generated_Source\PSoC4/BUTTON_Structure.c **** ****************************************************************************//**
 253:Generated_Source\PSoC4/BUTTON_Structure.c **** *
 254:Generated_Source\PSoC4/BUTTON_Structure.c **** * \brief
 255:Generated_Source\PSoC4/BUTTON_Structure.c **** *   This function initializes the Data Structure storage.
 256:Generated_Source\PSoC4/BUTTON_Structure.c **** *
 257:Generated_Source\PSoC4/BUTTON_Structure.c **** * \details
 258:Generated_Source\PSoC4/BUTTON_Structure.c **** *   This function copies the default widget configuration parameters
 259:Generated_Source\PSoC4/BUTTON_Structure.c **** *   from the Flash storage into the RAM Data Structure.
ARM GAS  C:\Users\Lenovo\AppData\Local\Temp\cce7OzAT.s 			page 6


 260:Generated_Source\PSoC4/BUTTON_Structure.c **** *
 261:Generated_Source\PSoC4/BUTTON_Structure.c **** *******************************************************************************/
 262:Generated_Source\PSoC4/BUTTON_Structure.c **** void BUTTON_DsInitialize(void)
 263:Generated_Source\PSoC4/BUTTON_Structure.c **** {
 264:Generated_Source\PSoC4/BUTTON_Structure.c ****     #if ((BUTTON_ENABLE == BUTTON_CSX_EN) || \
 265:Generated_Source\PSoC4/BUTTON_Structure.c ****          (BUTTON_ENABLE == BUTTON_CSD_IDAC_COMP_EN) || \
 266:Generated_Source\PSoC4/BUTTON_Structure.c ****         ((BUTTON_ENABLE == BUTTON_CSX_EN) && \
 267:Generated_Source\PSoC4/BUTTON_Structure.c ****          (BUTTON_ENABLE == BUTTON_CSX_SKIP_OVSMPL_SPECIFIC_NODES)))
 268:Generated_Source\PSoC4/BUTTON_Structure.c ****         uint32 snsId;
 269:Generated_Source\PSoC4/BUTTON_Structure.c ****         uint32 wdgtId;
 270:Generated_Source\PSoC4/BUTTON_Structure.c ****         BUTTON_RAM_SNS_STRUCT * ptrSnsTmp;
 271:Generated_Source\PSoC4/BUTTON_Structure.c ****         BUTTON_FLASH_WD_STRUCT const * ptrFlashWdgt;
 272:Generated_Source\PSoC4/BUTTON_Structure.c ****     #endif
 273:Generated_Source\PSoC4/BUTTON_Structure.c **** 
 274:Generated_Source\PSoC4/BUTTON_Structure.c ****     #if ((BUTTON_ENABLE == BUTTON_CSX_EN) && \
 275:Generated_Source\PSoC4/BUTTON_Structure.c ****          (BUTTON_ENABLE == BUTTON_CSX_SKIP_OVSMPL_SPECIFIC_NODES))
 276:Generated_Source\PSoC4/BUTTON_Structure.c ****         uint16 subConvNumber;
 277:Generated_Source\PSoC4/BUTTON_Structure.c ****     #endif
 278:Generated_Source\PSoC4/BUTTON_Structure.c **** 
 279:Generated_Source\PSoC4/BUTTON_Structure.c ****     #if ((0u != BUTTON_CSX_EN) || (0 != BUTTON_CSD_IDAC_COMP_EN))
 280:Generated_Source\PSoC4/BUTTON_Structure.c ****         uint8 const * ptrIdacInit = BUTTON_ramIdacInit;
 281:Generated_Source\PSoC4/BUTTON_Structure.c ****     #endif
 282:Generated_Source\PSoC4/BUTTON_Structure.c **** 
 283:Generated_Source\PSoC4/BUTTON_Structure.c ****     /* Reset RAM data structure content */
 284:Generated_Source\PSoC4/BUTTON_Structure.c ****     (void)memset(&BUTTON_dsRam, 0, sizeof(BUTTON_dsRam));
 285:Generated_Source\PSoC4/BUTTON_Structure.c **** 
 286:Generated_Source\PSoC4/BUTTON_Structure.c ****     /* Initialize configId, deviceId and hwClock registers */
 287:Generated_Source\PSoC4/BUTTON_Structure.c ****     BUTTON_dsRam.configId = BUTTON_CONFIG_ID;
 288:Generated_Source\PSoC4/BUTTON_Structure.c ****     BUTTON_dsRam.deviceId = BUTTON_DEVICE_ID;
 289:Generated_Source\PSoC4/BUTTON_Structure.c ****     BUTTON_dsRam.hwClock = BUTTON_HW_CLOCK;
 290:Generated_Source\PSoC4/BUTTON_Structure.c **** 
 291:Generated_Source\PSoC4/BUTTON_Structure.c ****     /* Initialize global RAM data */
 292:Generated_Source\PSoC4/BUTTON_Structure.c ****     BUTTON_dsRam.csd0Config = BUTTON_CSD0_CONFIG;
 293:Generated_Source\PSoC4/BUTTON_Structure.c **** 
 294:Generated_Source\PSoC4/BUTTON_Structure.c ****     BUTTON_dsRam.scanCurrentISC = BUTTON_SNS_CONNECTION_UNDEFINED;
 295:Generated_Source\PSoC4/BUTTON_Structure.c ****     #if (0u != BUTTON_TOTAL_CSD_WIDGETS)
 296:Generated_Source\PSoC4/BUTTON_Structure.c ****         BUTTON_dsRam.modCsdClk = BUTTON_CSD_SCANSPEED_DIVIDER;
 297:Generated_Source\PSoC4/BUTTON_Structure.c ****         BUTTON_dsRam.scanCsdISC = BUTTON_CSD_INACTIVE_SNS_CONNECTION;
 298:Generated_Source\PSoC4/BUTTON_Structure.c **** 
 299:Generated_Source\PSoC4/BUTTON_Structure.c ****         #if (0u != BUTTON_CSD_COMMON_SNS_CLK_EN)
 300:Generated_Source\PSoC4/BUTTON_Structure.c ****             BUTTON_dsRam.snsCsdClk = BUTTON_CSD_SNS_CLK_DIVIDER;
 301:Generated_Source\PSoC4/BUTTON_Structure.c ****         #endif /* #if (0u != BUTTON_CSD_COMMON_SNS_CLK_EN) */
 302:Generated_Source\PSoC4/BUTTON_Structure.c ****     #endif /* #if (0u != BUTTON_TOTAL_CSD_WIDGETS) */
 303:Generated_Source\PSoC4/BUTTON_Structure.c **** 
 304:Generated_Source\PSoC4/BUTTON_Structure.c ****     #if (BUTTON_ENABLE == BUTTON_CSX_EN)
 305:Generated_Source\PSoC4/BUTTON_Structure.c ****         BUTTON_dsRam.modCsxClk = BUTTON_CSX_SCANSPEED_DIVIDER;
 306:Generated_Source\PSoC4/BUTTON_Structure.c ****         BUTTON_dsRam.scanCsxISC = BUTTON_CSX_INACTIVE_SNS_CONNECTION;
 307:Generated_Source\PSoC4/BUTTON_Structure.c **** 
 308:Generated_Source\PSoC4/BUTTON_Structure.c ****         #if (0u != BUTTON_CSX_COMMON_TX_CLK_EN)
 309:Generated_Source\PSoC4/BUTTON_Structure.c ****             BUTTON_dsRam.snsCsxClk = BUTTON_CSX_TX_CLK_DIVIDER;
 310:Generated_Source\PSoC4/BUTTON_Structure.c ****         #endif /* #if (0u != BUTTON_CSX_COMMON_TX_CLK_EN) */
 311:Generated_Source\PSoC4/BUTTON_Structure.c ****     #endif /* #if (BUTTON_ENABLE == BUTTON_CSX_EN) */
 312:Generated_Source\PSoC4/BUTTON_Structure.c **** 
 313:Generated_Source\PSoC4/BUTTON_Structure.c ****     #if (BUTTON_ENABLE == BUTTON_ISX_EN)
 314:Generated_Source\PSoC4/BUTTON_Structure.c ****         BUTTON_dsRam.modIsxClk = BUTTON_ISX_SCANSPEED_DIVIDER;
 315:Generated_Source\PSoC4/BUTTON_Structure.c ****     #endif /* #if (0u != BUTTON_ISX_EN) */
 316:Generated_Source\PSoC4/BUTTON_Structure.c **** 
ARM GAS  C:\Users\Lenovo\AppData\Local\Temp\cce7OzAT.s 			page 7


 317:Generated_Source\PSoC4/BUTTON_Structure.c ****     #if (0u != BUTTON_SELF_TEST_EN)
 318:Generated_Source\PSoC4/BUTTON_Structure.c **** 
 319:Generated_Source\PSoC4/BUTTON_Structure.c ****         BUTTON_dsRam.glbCrc = BUTTON_GLB_CRC;
 320:Generated_Source\PSoC4/BUTTON_Structure.c ****         BUTTON_dsRam.selfTestConfig.fineInitTime = (uint8)BUTTON_TST_FINE_INIT_TIME;
 321:Generated_Source\PSoC4/BUTTON_Structure.c ****         BUTTON_dsRam.selfTestConfig.startupDelay = BUTTON_TST_ANALOG_STARTUP_DELAY_US;
 322:Generated_Source\PSoC4/BUTTON_Structure.c **** 
 323:Generated_Source\PSoC4/BUTTON_Structure.c ****         #if (0u != BUTTON_TST_SNS_SHORT_EN)
 324:Generated_Source\PSoC4/BUTTON_Structure.c ****             BUTTON_dsRam.selfTestConfig.snsShortTimeUs = BUTTON_TST_SNS_SHORT_TIME;
 325:Generated_Source\PSoC4/BUTTON_Structure.c ****         #endif
 326:Generated_Source\PSoC4/BUTTON_Structure.c **** 
 327:Generated_Source\PSoC4/BUTTON_Structure.c ****         #if ((0u != BUTTON_TST_SNS_CAP_EN) ||\
 328:Generated_Source\PSoC4/BUTTON_Structure.c ****              (0u != BUTTON_TST_SH_CAP_EN))
 329:Generated_Source\PSoC4/BUTTON_Structure.c ****             BUTTON_dsRam.selfTestConfig.snsCapSnsClkDivider = BUTTON_TST_SNS_CAP_SNS_CLK_DIVIDER;
 330:Generated_Source\PSoC4/BUTTON_Structure.c ****             BUTTON_dsRam.selfTestConfig.snsCapSnsClkHz = BUTTON_TST_SNS_CAP_SNS_CLK_HZ;
 331:Generated_Source\PSoC4/BUTTON_Structure.c ****             BUTTON_dsRam.selfTestConfig.snsCapResolution = BUTTON_TST_SNS_CAP_RESOLUTION;
 332:Generated_Source\PSoC4/BUTTON_Structure.c ****             BUTTON_dsRam.selfTestConfig.snsCapVrefGain = BUTTON_TST_SNS_CAP_VREF_GAIN ;
 333:Generated_Source\PSoC4/BUTTON_Structure.c ****             BUTTON_dsRam.selfTestConfig.snsCapVrefVoltage = BUTTON_TST_SNS_CAP_VREF_MV;
 334:Generated_Source\PSoC4/BUTTON_Structure.c ****             BUTTON_dsRam.selfTestConfig.snsCapModClkDivider = BUTTON_TST_MOD_CLK_DIVIDER ;
 335:Generated_Source\PSoC4/BUTTON_Structure.c ****             BUTTON_dsRam.selfTestConfig.snsCapModClkKHz = BUTTON_TST_MOD_CLK_KHZ ;
 336:Generated_Source\PSoC4/BUTTON_Structure.c ****         #endif /* ((0u != BUTTON_TST_SNS_CAP_EN) ||
 337:Generated_Source\PSoC4/BUTTON_Structure.c ****                    (0u != BUTTON_TST_SH_CAP_EN)) */
 338:Generated_Source\PSoC4/BUTTON_Structure.c **** 
 339:Generated_Source\PSoC4/BUTTON_Structure.c ****         #if (0u != BUTTON_TST_SNS_CAP_EN)
 340:Generated_Source\PSoC4/BUTTON_Structure.c ****             #if (0u != BUTTON_CSD_EN)
 341:Generated_Source\PSoC4/BUTTON_Structure.c ****                 BUTTON_dsRam.selfTestConfig.bistCsdSnsCapISC = BUTTON_SNS_CAP_CSD_INACTIVE_CONNECTI
 342:Generated_Source\PSoC4/BUTTON_Structure.c ****             #endif /* (0u != BUTTON_CSD_EN) */
 343:Generated_Source\PSoC4/BUTTON_Structure.c ****             #if (0u != BUTTON_CSX_EN)
 344:Generated_Source\PSoC4/BUTTON_Structure.c ****                 BUTTON_dsRam.selfTestConfig.bistCsxSnsCapISC = BUTTON_SNS_CAP_CSX_INACTIVE_CONNECTI
 345:Generated_Source\PSoC4/BUTTON_Structure.c ****             #endif /* (0u != BUTTON_CSX_EN) */
 346:Generated_Source\PSoC4/BUTTON_Structure.c ****         #endif /* (0u != BUTTON_TST_SNS_CAP_EN) */
 347:Generated_Source\PSoC4/BUTTON_Structure.c **** 
 348:Generated_Source\PSoC4/BUTTON_Structure.c ****         #if (0u != BUTTON_TST_SH_CAP_EN)
 349:Generated_Source\PSoC4/BUTTON_Structure.c ****             #if ((0u != BUTTON_CSD_EN) && (0u != BUTTON_CSD_SHIELD_EN))
 350:Generated_Source\PSoC4/BUTTON_Structure.c ****                 BUTTON_dsRam.selfTestConfig.bistCsdShCapISC = BUTTON_SHIELD_CAP_INACTIVE_CONNECTION
 351:Generated_Source\PSoC4/BUTTON_Structure.c ****             #endif /* ((0u != BUTTON_CSD_EN) && (0u != BUTTON_CSD_SHIELD_EN)) */
 352:Generated_Source\PSoC4/BUTTON_Structure.c ****         #endif /* (0u != BUTTON_TST_SH_CAP_EN) */
 353:Generated_Source\PSoC4/BUTTON_Structure.c **** 
 354:Generated_Source\PSoC4/BUTTON_Structure.c ****         #if (0u != BUTTON_TST_EXTERNAL_CAP_EN)
 355:Generated_Source\PSoC4/BUTTON_Structure.c ****             BUTTON_dsRam.selfTestConfig.extCapVrefGain = BUTTON_TST_EXT_CAP_VREF_GAIN;
 356:Generated_Source\PSoC4/BUTTON_Structure.c ****             BUTTON_dsRam.selfTestConfig.extCapVrefVoltage = BUTTON_TST_EXT_CAP_VREF_MV;
 357:Generated_Source\PSoC4/BUTTON_Structure.c ****         #endif /* #if (0u != BUTTON_TST_EXTERNAL_CAP_EN) */
 358:Generated_Source\PSoC4/BUTTON_Structure.c **** 
 359:Generated_Source\PSoC4/BUTTON_Structure.c ****         #if (0u != BUTTON_TST_VDDA_EN)
 360:Generated_Source\PSoC4/BUTTON_Structure.c ****             BUTTON_dsRam.selfTestConfig.vddaResolution = BUTTON_TST_VDDA_RESOLUTION;
 361:Generated_Source\PSoC4/BUTTON_Structure.c ****             BUTTON_dsRam.selfTestConfig.vddaModClkDivider = BUTTON_TST_VDDA_MOD_CLK_DIVIDER;
 362:Generated_Source\PSoC4/BUTTON_Structure.c **** 
 363:Generated_Source\PSoC4/BUTTON_Structure.c ****             BUTTON_dsRam.selfTestConfig.vddaVrefGain = BUTTON_TST_VDDA_VREF_GAIN;
 364:Generated_Source\PSoC4/BUTTON_Structure.c ****             BUTTON_dsRam.selfTestConfig.vddaVrefVoltage = BUTTON_TST_VDDA_VREF_MV;
 365:Generated_Source\PSoC4/BUTTON_Structure.c ****         #endif /* #if (0u != BUTTON_TST_VDDA_EN) */
 366:Generated_Source\PSoC4/BUTTON_Structure.c **** 
 367:Generated_Source\PSoC4/BUTTON_Structure.c ****     #endif /* #if (0u != BUTTON_SELF_TEST_EN) */
 368:Generated_Source\PSoC4/BUTTON_Structure.c **** 
 369:Generated_Source\PSoC4/BUTTON_Structure.c ****     /* Initialize RAM widget data */
 370:Generated_Source\PSoC4/BUTTON_Structure.c ****     BUTTON_dsRam.wdgtList = BUTTON_ramWidgetInit;
 371:Generated_Source\PSoC4/BUTTON_Structure.c **** 
 372:Generated_Source\PSoC4/BUTTON_Structure.c ****     /* Initialize Gesture configuration structure */
 373:Generated_Source\PSoC4/BUTTON_Structure.c ****     #if ((0u != BUTTON_GES_GLOBAL_EN) || (0u != BUTTON_BALLISTIC_MULTIPLIER_EN))
ARM GAS  C:\Users\Lenovo\AppData\Local\Temp\cce7OzAT.s 			page 8


 374:Generated_Source\PSoC4/BUTTON_Structure.c ****         BUTTON_dsRam.timestampInterval = BUTTON_TIMESTAMP_INTERVAL;
 375:Generated_Source\PSoC4/BUTTON_Structure.c ****     #endif /* ((0u != BUTTON_GES_GLOBAL_EN) || (0u != BUTTON_BALLISTIC_MULTIPLIER_EN)) */
 376:Generated_Source\PSoC4/BUTTON_Structure.c **** 
 377:Generated_Source\PSoC4/BUTTON_Structure.c ****     #if (0u != BUTTON_GES_GLOBAL_EN)
 378:Generated_Source\PSoC4/BUTTON_Structure.c ****         BUTTON_dsRam.gestures = BUTTON_ramGesturesInit;
 379:Generated_Source\PSoC4/BUTTON_Structure.c ****     #endif /* (0u != BUTTON_GES_GLOBAL_EN) */
 380:Generated_Source\PSoC4/BUTTON_Structure.c **** 
 381:Generated_Source\PSoC4/BUTTON_Structure.c ****     #if (0u != BUTTON_BALLISTIC_MULTIPLIER_EN)
 382:Generated_Source\PSoC4/BUTTON_Structure.c ****         BUTTON_dsRam.ballisticConfig = BUTTON_ramBallisticInit;
 383:Generated_Source\PSoC4/BUTTON_Structure.c ****     #endif /* (0u != BUTTON_BALLISTIC_MULTIPLIER_EN) */
 384:Generated_Source\PSoC4/BUTTON_Structure.c **** 
 385:Generated_Source\PSoC4/BUTTON_Structure.c ****     #if (0u != BUTTON_CSX_EN) || (0 != BUTTON_CSD_IDAC_COMP_EN)
 386:Generated_Source\PSoC4/BUTTON_Structure.c ****         /* Initialize IDAC data */
 387:Generated_Source\PSoC4/BUTTON_Structure.c ****         ptrFlashWdgt = BUTTON_dsFlash.wdgtArray;
 388:Generated_Source\PSoC4/BUTTON_Structure.c **** 
 389:Generated_Source\PSoC4/BUTTON_Structure.c ****         for (wdgtId = BUTTON_TOTAL_WIDGETS; wdgtId-- > 0u; )
 390:Generated_Source\PSoC4/BUTTON_Structure.c ****         {
 391:Generated_Source\PSoC4/BUTTON_Structure.c ****             ptrSnsTmp = ptrFlashWdgt->ptr2SnsRam;
 392:Generated_Source\PSoC4/BUTTON_Structure.c **** 
 393:Generated_Source\PSoC4/BUTTON_Structure.c ****             for (snsId = BUTTON_GET_SNS_CNT_BY_PTR(ptrFlashWdgt); snsId-- > 0u;)
 394:Generated_Source\PSoC4/BUTTON_Structure.c ****             {
 395:Generated_Source\PSoC4/BUTTON_Structure.c ****                 ptrSnsTmp->idacComp[0u] = *ptrIdacInit;
 396:Generated_Source\PSoC4/BUTTON_Structure.c ****                 ptrIdacInit++;
 397:Generated_Source\PSoC4/BUTTON_Structure.c **** 
 398:Generated_Source\PSoC4/BUTTON_Structure.c ****                 #if (0u != BUTTON_MULTI_FREQ_SCAN_EN)
 399:Generated_Source\PSoC4/BUTTON_Structure.c ****                     ptrSnsTmp->idacComp[1u] = *ptrIdacInit;
 400:Generated_Source\PSoC4/BUTTON_Structure.c ****                     ptrIdacInit++;
 401:Generated_Source\PSoC4/BUTTON_Structure.c **** 
 402:Generated_Source\PSoC4/BUTTON_Structure.c ****                     ptrSnsTmp->idacComp[2u] = *ptrIdacInit;
 403:Generated_Source\PSoC4/BUTTON_Structure.c ****                     ptrIdacInit++;
 404:Generated_Source\PSoC4/BUTTON_Structure.c ****                 #endif /* #if (0u != BUTTON_MULTI_FREQ_SCAN_EN) */
 405:Generated_Source\PSoC4/BUTTON_Structure.c **** 
 406:Generated_Source\PSoC4/BUTTON_Structure.c ****                 ptrSnsTmp++;
 407:Generated_Source\PSoC4/BUTTON_Structure.c ****             }
 408:Generated_Source\PSoC4/BUTTON_Structure.c **** 
 409:Generated_Source\PSoC4/BUTTON_Structure.c ****             ptrFlashWdgt++; /* Move to next widget */
 410:Generated_Source\PSoC4/BUTTON_Structure.c ****         }
 411:Generated_Source\PSoC4/BUTTON_Structure.c ****     #endif /*(0u != BUTTON_CSX_EN) || (0 != BUTTON_CSD_IDAC_COMP_EN)*/
 412:Generated_Source\PSoC4/BUTTON_Structure.c **** 
 413:Generated_Source\PSoC4/BUTTON_Structure.c ****     #if ((BUTTON_ENABLE == BUTTON_CSX_EN) && \
 414:Generated_Source\PSoC4/BUTTON_Structure.c ****          (BUTTON_ENABLE == BUTTON_CSX_SKIP_OVSMPL_SPECIFIC_NODES))
 415:Generated_Source\PSoC4/BUTTON_Structure.c ****         /* Initialize Sub-Conversion Number for each node of each CSX widget */
 416:Generated_Source\PSoC4/BUTTON_Structure.c ****         ptrFlashWdgt = BUTTON_dsFlash.wdgtArray;
 417:Generated_Source\PSoC4/BUTTON_Structure.c ****         for (wdgtId = BUTTON_TOTAL_WIDGETS; wdgtId-- > 0u;)
 418:Generated_Source\PSoC4/BUTTON_Structure.c ****         {
 419:Generated_Source\PSoC4/BUTTON_Structure.c ****             /* Check for widget sense method */
 420:Generated_Source\PSoC4/BUTTON_Structure.c ****             if (BUTTON_SENSE_METHOD_CSX_E == BUTTON_GET_SENSE_METHOD(ptrFlashWdgt))
 421:Generated_Source\PSoC4/BUTTON_Structure.c ****             {
 422:Generated_Source\PSoC4/BUTTON_Structure.c ****                 /* Take the sub-convesion number of a CSX widget and initialize each node of this w
 423:Generated_Source\PSoC4/BUTTON_Structure.c ****                 subConvNumber = ((BUTTON_RAM_WD_BASE_STRUCT *)(ptrFlashWdgt->ptr2WdgtRam))->resolut
 424:Generated_Source\PSoC4/BUTTON_Structure.c ****                 ptrSnsTmp = ptrFlashWdgt->ptr2SnsRam;
 425:Generated_Source\PSoC4/BUTTON_Structure.c ****                 for (snsId = BUTTON_GET_SNS_CNT_BY_PTR(ptrFlashWdgt); snsId-- > 0u;)
 426:Generated_Source\PSoC4/BUTTON_Structure.c ****                 {
 427:Generated_Source\PSoC4/BUTTON_Structure.c ****                     ptrSnsTmp->subConvNum = subConvNumber;
 428:Generated_Source\PSoC4/BUTTON_Structure.c ****                     ptrSnsTmp++;
 429:Generated_Source\PSoC4/BUTTON_Structure.c ****                 }
 430:Generated_Source\PSoC4/BUTTON_Structure.c ****             }
ARM GAS  C:\Users\Lenovo\AppData\Local\Temp\cce7OzAT.s 			page 9


 431:Generated_Source\PSoC4/BUTTON_Structure.c ****             /* Move to the next widget */
 432:Generated_Source\PSoC4/BUTTON_Structure.c ****             ptrFlashWdgt++;
 433:Generated_Source\PSoC4/BUTTON_Structure.c ****         }
 434:Generated_Source\PSoC4/BUTTON_Structure.c ****     #endif /* ((BUTTON_ENABLE == BUTTON_CSX_EN) && \
 435:Generated_Source\PSoC4/BUTTON_Structure.c ****                (BUTTON_ENABLE == BUTTON_CSX_SKIP_OVSMPL_SPECIFIC_NODES)) */
 436:Generated_Source\PSoC4/BUTTON_Structure.c **** 
 437:Generated_Source\PSoC4/BUTTON_Structure.c ****     #if (0u != BUTTON_ADC_EN)
 438:Generated_Source\PSoC4/BUTTON_Structure.c ****         BUTTON_AdcDsInitialize();
 439:Generated_Source\PSoC4/BUTTON_Structure.c ****     #endif /* (0u != BUTTON_ADC_EN) */
 440:Generated_Source\PSoC4/BUTTON_Structure.c **** }
 441:Generated_Source\PSoC4/BUTTON_Structure.c **** 
 442:Generated_Source\PSoC4/BUTTON_Structure.c **** 
 443:Generated_Source\PSoC4/BUTTON_Structure.c **** #if (0u != BUTTON_ADC_EN)
 444:Generated_Source\PSoC4/BUTTON_Structure.c ****     /*******************************************************************************
 445:Generated_Source\PSoC4/BUTTON_Structure.c ****     * Function Name: BUTTON_AdcDsInitialize
 446:Generated_Source\PSoC4/BUTTON_Structure.c ****     ****************************************************************************//**
 447:Generated_Source\PSoC4/BUTTON_Structure.c ****     *
 448:Generated_Source\PSoC4/BUTTON_Structure.c ****     * \brief
 449:Generated_Source\PSoC4/BUTTON_Structure.c ****     *   Configures the initial Adc datastructure members.
 450:Generated_Source\PSoC4/BUTTON_Structure.c ****     *
 451:Generated_Source\PSoC4/BUTTON_Structure.c ****     *******************************************************************************/
 452:Generated_Source\PSoC4/BUTTON_Structure.c ****     void BUTTON_AdcDsInitialize(void)
 453:Generated_Source\PSoC4/BUTTON_Structure.c ****     {
 454:Generated_Source\PSoC4/BUTTON_Structure.c ****         BUTTON_dsRam.adcResolution = BUTTON_ADC_RESOLUTION;
 455:Generated_Source\PSoC4/BUTTON_Structure.c ****         BUTTON_dsRam.adcIdac = (uint8)(BUTTON_ADC_IDAC_DEFAULT);
 456:Generated_Source\PSoC4/BUTTON_Structure.c ****         BUTTON_dsRam.adcActiveCh = BUTTON_AdcNO_CHANNEL;
 457:Generated_Source\PSoC4/BUTTON_Structure.c ****     }
 458:Generated_Source\PSoC4/BUTTON_Structure.c **** #endif /* (0u != BUTTON_ADC_EN) */
 459:Generated_Source\PSoC4/BUTTON_Structure.c **** 
 460:Generated_Source\PSoC4/BUTTON_Structure.c **** 
 461:Generated_Source\PSoC4/BUTTON_Structure.c **** /*******************************************************************************
 462:Generated_Source\PSoC4/BUTTON_Structure.c **** * Function Name: DsParseParamId
 463:Generated_Source\PSoC4/BUTTON_Structure.c **** ****************************************************************************//**
 464:Generated_Source\PSoC4/BUTTON_Structure.c **** *
 465:Generated_Source\PSoC4/BUTTON_Structure.c **** * \brief
 466:Generated_Source\PSoC4/BUTTON_Structure.c **** *   This function parses the parameter ID and checks its correctness.
 467:Generated_Source\PSoC4/BUTTON_Structure.c **** *
 468:Generated_Source\PSoC4/BUTTON_Structure.c **** * \details
 469:Generated_Source\PSoC4/BUTTON_Structure.c **** *   This function checks the parameter CRC if the self-test is enabled,
 470:Generated_Source\PSoC4/BUTTON_Structure.c **** *   validates the offset value and parameter type.
 471:Generated_Source\PSoC4/BUTTON_Structure.c **** *
 472:Generated_Source\PSoC4/BUTTON_Structure.c **** * \param paramId The parameter to parse.
 473:Generated_Source\PSoC4/BUTTON_Structure.c **** * \param pData   The pointer to the structure that will hold parsed data.
 474:Generated_Source\PSoC4/BUTTON_Structure.c **** *
 475:Generated_Source\PSoC4/BUTTON_Structure.c **** * \return CYRET_SUCCESS     If the parameter is valid
 476:Generated_Source\PSoC4/BUTTON_Structure.c **** *         CYRET_BAD_PARAM   If the parameter is invalid
 477:Generated_Source\PSoC4/BUTTON_Structure.c **** *
 478:Generated_Source\PSoC4/BUTTON_Structure.c **** *******************************************************************************/
 479:Generated_Source\PSoC4/BUTTON_Structure.c **** static cystatus DsParseParamId(uint32 paramId, PARAM_ID_STRUCT *pData)
 480:Generated_Source\PSoC4/BUTTON_Structure.c **** {
  27              		.loc 1 480 0
  28              		.cfi_startproc
  29              		@ args = 0, pretend = 0, frame = 0
  30              		@ frame_needed = 0, uses_anonymous_args = 0
  31              	.LVL0:
  32 0000 70B5     		push	{r4, r5, r6, lr}
  33              		.cfi_def_cfa_offset 16
ARM GAS  C:\Users\Lenovo\AppData\Local\Temp\cce7OzAT.s 			page 10


  34              		.cfi_offset 4, -16
  35              		.cfi_offset 5, -12
  36              		.cfi_offset 6, -8
  37              		.cfi_offset 14, -4
  38              	.LVL1:
 481:Generated_Source\PSoC4/BUTTON_Structure.c ****     cystatus result = CYRET_SUCCESS;
 482:Generated_Source\PSoC4/BUTTON_Structure.c **** 
 483:Generated_Source\PSoC4/BUTTON_Structure.c ****     #if (0u != BUTTON_SELF_TEST_EN)
 484:Generated_Source\PSoC4/BUTTON_Structure.c ****         const uint8 crcTable[] =
 485:Generated_Source\PSoC4/BUTTON_Structure.c ****         {
 486:Generated_Source\PSoC4/BUTTON_Structure.c ****             0x00u, 0x09u, 0x0Bu, 0x02u, 0x0Fu, 0x06u, 0x04u, 0x0Du,
 487:Generated_Source\PSoC4/BUTTON_Structure.c ****             0x07u, 0x0Eu, 0x0Cu, 0x05u, 0x08u, 0x01u, 0x03u, 0x0Au
 488:Generated_Source\PSoC4/BUTTON_Structure.c ****         };
 489:Generated_Source\PSoC4/BUTTON_Structure.c **** 
 490:Generated_Source\PSoC4/BUTTON_Structure.c ****         uint32 i;
 491:Generated_Source\PSoC4/BUTTON_Structure.c ****         uint32 actualCrc = 0u;
 492:Generated_Source\PSoC4/BUTTON_Structure.c ****         uint32 crcIndex;
 493:Generated_Source\PSoC4/BUTTON_Structure.c ****     #endif /* #if (0u != BUTTON_SELF_TEST_EN) */
 494:Generated_Source\PSoC4/BUTTON_Structure.c **** 
 495:Generated_Source\PSoC4/BUTTON_Structure.c ****     /* Extract parameter data */
 496:Generated_Source\PSoC4/BUTTON_Structure.c ****     pData->offset     = LO16(paramId);
  39              		.loc 1 496 0
  40 0002 85B2     		uxth	r5, r0
  41 0004 0D80     		strh	r5, [r1]
 497:Generated_Source\PSoC4/BUTTON_Structure.c ****     pData->affectsCrc = LO8((paramId & PARAM_UBIT_MASK)  >> PARAM_UBIT_OFFSET);
  42              		.loc 1 497 0
  43 0006 C30D     		lsrs	r3, r0, #23
  44 0008 0124     		movs	r4, #1
  45 000a 2340     		ands	r3, r4
  46 000c CB70     		strb	r3, [r1, #3]
 498:Generated_Source\PSoC4/BUTTON_Structure.c ****     pData->widgetId   = LO8((paramId & PARAM_WDID_MASK)  >> PARAM_WDID_OFFSET);
  47              		.loc 1 498 0
  48 000e 030C     		lsrs	r3, r0, #16
  49 0010 7F22     		movs	r2, #127
  50 0012 1340     		ands	r3, r2
  51 0014 8B70     		strb	r3, [r1, #2]
 499:Generated_Source\PSoC4/BUTTON_Structure.c ****     pData->type       = LO8((paramId & PARAM_TYPE_MASK)  >> PARAM_TYPE_OFFSET);
  52              		.loc 1 499 0
  53 0016 860F     		lsrs	r6, r0, #30
  54 0018 CE71     		strb	r6, [r1, #7]
 500:Generated_Source\PSoC4/BUTTON_Structure.c ****     pData->flash      = LO8((paramId & PARAM_FBIT_MASK)  >> PARAM_FBIT_OFFSET);
  55              		.loc 1 500 0
  56 001a 030F     		lsrs	r3, r0, #28
  57 001c 2340     		ands	r3, r4
  58 001e 4B71     		strb	r3, [r1, #5]
 501:Generated_Source\PSoC4/BUTTON_Structure.c ****     pData->rw         = LO8((paramId & PARAM_RWBIT_MASK) >> PARAM_RWBIT_OFFSET);
  59              		.loc 1 501 0
  60 0020 420F     		lsrs	r2, r0, #29
  61 0022 2240     		ands	r2, r4
  62 0024 8A71     		strb	r2, [r1, #6]
 502:Generated_Source\PSoC4/BUTTON_Structure.c ****     pData->crc        = LO8((paramId & PARAM_CRC_MASK)   >> PARAM_CRC_OFFSET);
  63              		.loc 1 502 0
  64 0026 000E     		lsrs	r0, r0, #24
  65              	.LVL2:
  66 0028 0E34     		adds	r4, r4, #14
  67 002a 2040     		ands	r0, r4
  68 002c 0871     		strb	r0, [r1, #4]
ARM GAS  C:\Users\Lenovo\AppData\Local\Temp\cce7OzAT.s 			page 11


 503:Generated_Source\PSoC4/BUTTON_Structure.c **** 
 504:Generated_Source\PSoC4/BUTTON_Structure.c ****     /* Check parameter CRC if self-test is enabled */
 505:Generated_Source\PSoC4/BUTTON_Structure.c ****     #if (0u != BUTTON_SELF_TEST_EN)
 506:Generated_Source\PSoC4/BUTTON_Structure.c **** 
 507:Generated_Source\PSoC4/BUTTON_Structure.c ****         /* Calculate CRC for bits 0..24.
 508:Generated_Source\PSoC4/BUTTON_Structure.c ****          * The CRC is calculated using nibbles (4-bits).
 509:Generated_Source\PSoC4/BUTTON_Structure.c ****          * So for 0..24 bits there are in total 6 nibbles. */
 510:Generated_Source\PSoC4/BUTTON_Structure.c ****         for (i = 6u; i > 0u; i--)
 511:Generated_Source\PSoC4/BUTTON_Structure.c ****         {
 512:Generated_Source\PSoC4/BUTTON_Structure.c ****             crcIndex = actualCrc ^ (paramId & 0x0Fu);
 513:Generated_Source\PSoC4/BUTTON_Structure.c ****             actualCrc = crcTable[crcIndex];
 514:Generated_Source\PSoC4/BUTTON_Structure.c ****             paramId >>= 4u;
 515:Generated_Source\PSoC4/BUTTON_Structure.c ****         }
 516:Generated_Source\PSoC4/BUTTON_Structure.c **** 
 517:Generated_Source\PSoC4/BUTTON_Structure.c ****         /* Add bits 28..32 */
 518:Generated_Source\PSoC4/BUTTON_Structure.c ****         crcIndex = actualCrc ^ ((paramId >> 4u) & 0x0Fu);
 519:Generated_Source\PSoC4/BUTTON_Structure.c ****         actualCrc = crcTable[crcIndex];
 520:Generated_Source\PSoC4/BUTTON_Structure.c **** 
 521:Generated_Source\PSoC4/BUTTON_Structure.c ****         /* Add bits 24..28 (CRC) */
 522:Generated_Source\PSoC4/BUTTON_Structure.c ****         crcIndex = actualCrc ^ (paramId & 0x0Fu);
 523:Generated_Source\PSoC4/BUTTON_Structure.c ****         actualCrc = crcTable[crcIndex];
 524:Generated_Source\PSoC4/BUTTON_Structure.c **** 
 525:Generated_Source\PSoC4/BUTTON_Structure.c ****         if (0u != actualCrc)
 526:Generated_Source\PSoC4/BUTTON_Structure.c ****         {
 527:Generated_Source\PSoC4/BUTTON_Structure.c ****             /* CRC mismatch */
 528:Generated_Source\PSoC4/BUTTON_Structure.c ****             result = CYRET_BAD_PARAM;
 529:Generated_Source\PSoC4/BUTTON_Structure.c ****         }
 530:Generated_Source\PSoC4/BUTTON_Structure.c **** 
 531:Generated_Source\PSoC4/BUTTON_Structure.c ****         if ((CYRET_SUCCESS == result) &&
 532:Generated_Source\PSoC4/BUTTON_Structure.c ****             (0u != pData->affectsCrc) && (pData->widgetId >= BUTTON_TOTAL_WIDGETS ))
 533:Generated_Source\PSoC4/BUTTON_Structure.c ****         {
 534:Generated_Source\PSoC4/BUTTON_Structure.c ****             /* Wrong widgetId for protected parameter */
 535:Generated_Source\PSoC4/BUTTON_Structure.c ****             result = CYRET_BAD_PARAM;
 536:Generated_Source\PSoC4/BUTTON_Structure.c ****         }
 537:Generated_Source\PSoC4/BUTTON_Structure.c **** 
 538:Generated_Source\PSoC4/BUTTON_Structure.c ****         /* Check offset value range */
 539:Generated_Source\PSoC4/BUTTON_Structure.c ****         if (CYRET_SUCCESS == result)
 540:Generated_Source\PSoC4/BUTTON_Structure.c ****         {
 541:Generated_Source\PSoC4/BUTTON_Structure.c ****             if (0u == pData->flash)
 542:Generated_Source\PSoC4/BUTTON_Structure.c ****             {
 543:Generated_Source\PSoC4/BUTTON_Structure.c ****                 /* Check offset for RAM Data Structure range */
 544:Generated_Source\PSoC4/BUTTON_Structure.c ****                 if (pData->offset >= sizeof(BUTTON_dsRam))
 545:Generated_Source\PSoC4/BUTTON_Structure.c ****                 {
 546:Generated_Source\PSoC4/BUTTON_Structure.c ****                     result = CYRET_BAD_PARAM;
 547:Generated_Source\PSoC4/BUTTON_Structure.c ****                 }
 548:Generated_Source\PSoC4/BUTTON_Structure.c ****             }
 549:Generated_Source\PSoC4/BUTTON_Structure.c ****             else
 550:Generated_Source\PSoC4/BUTTON_Structure.c ****             {
 551:Generated_Source\PSoC4/BUTTON_Structure.c ****                 /* Check offset for Flash Data Structure range */
 552:Generated_Source\PSoC4/BUTTON_Structure.c ****                 if (pData->offset >= sizeof(BUTTON_dsFlash))
 553:Generated_Source\PSoC4/BUTTON_Structure.c ****                 {
 554:Generated_Source\PSoC4/BUTTON_Structure.c ****                     result = CYRET_BAD_PARAM;
 555:Generated_Source\PSoC4/BUTTON_Structure.c ****                 }
 556:Generated_Source\PSoC4/BUTTON_Structure.c **** 
 557:Generated_Source\PSoC4/BUTTON_Structure.c ****                 /* Check if it is marked as Read Only */
 558:Generated_Source\PSoC4/BUTTON_Structure.c ****                 if (0u != pData->rw)
 559:Generated_Source\PSoC4/BUTTON_Structure.c ****                 {
ARM GAS  C:\Users\Lenovo\AppData\Local\Temp\cce7OzAT.s 			page 12


 560:Generated_Source\PSoC4/BUTTON_Structure.c ****                     result = CYRET_BAD_PARAM;
 561:Generated_Source\PSoC4/BUTTON_Structure.c ****                 }
 562:Generated_Source\PSoC4/BUTTON_Structure.c ****             }
 563:Generated_Source\PSoC4/BUTTON_Structure.c ****         }
 564:Generated_Source\PSoC4/BUTTON_Structure.c ****     #else /* #if (0u != BUTTON_SELF_TEST_EN) */
 565:Generated_Source\PSoC4/BUTTON_Structure.c ****         /* Check offset value range */
 566:Generated_Source\PSoC4/BUTTON_Structure.c ****         if (0u == pData->flash)
  69              		.loc 1 566 0
  70 002e 002B     		cmp	r3, #0
  71 0030 03D1     		bne	.L2
 567:Generated_Source\PSoC4/BUTTON_Structure.c ****         {
 568:Generated_Source\PSoC4/BUTTON_Structure.c ****             /* Check offset for RAM Data Structure range */
 569:Generated_Source\PSoC4/BUTTON_Structure.c ****             if (pData->offset >= sizeof(BUTTON_dsRam))
  72              		.loc 1 569 0
  73 0032 432D     		cmp	r5, #67
  74 0034 09D8     		bhi	.L9
 481:Generated_Source\PSoC4/BUTTON_Structure.c **** 
  75              		.loc 1 481 0
  76 0036 0020     		movs	r0, #0
  77 0038 0AE0     		b	.L3
  78              	.L2:
 570:Generated_Source\PSoC4/BUTTON_Structure.c ****             {
 571:Generated_Source\PSoC4/BUTTON_Structure.c ****                 result = CYRET_BAD_PARAM;
 572:Generated_Source\PSoC4/BUTTON_Structure.c ****             }
 573:Generated_Source\PSoC4/BUTTON_Structure.c ****         }
 574:Generated_Source\PSoC4/BUTTON_Structure.c ****         else
 575:Generated_Source\PSoC4/BUTTON_Structure.c ****         {
 576:Generated_Source\PSoC4/BUTTON_Structure.c ****             /* Check offset for Flash Data Structure range */
 577:Generated_Source\PSoC4/BUTTON_Structure.c ****             if (pData->offset >= sizeof(BUTTON_dsFlash))
  79              		.loc 1 577 0
  80 003a 1F2D     		cmp	r5, #31
  81 003c 01D8     		bhi	.L10
 481:Generated_Source\PSoC4/BUTTON_Structure.c **** 
  82              		.loc 1 481 0
  83 003e 0020     		movs	r0, #0
  84 0040 00E0     		b	.L4
  85              	.L10:
 578:Generated_Source\PSoC4/BUTTON_Structure.c ****             {
 579:Generated_Source\PSoC4/BUTTON_Structure.c ****                 result = CYRET_BAD_PARAM;
  86              		.loc 1 579 0
  87 0042 0120     		movs	r0, #1
  88              	.L4:
  89              	.LVL3:
 580:Generated_Source\PSoC4/BUTTON_Structure.c ****             }
 581:Generated_Source\PSoC4/BUTTON_Structure.c **** 
 582:Generated_Source\PSoC4/BUTTON_Structure.c ****             /* Check if it is marked as Read Only */
 583:Generated_Source\PSoC4/BUTTON_Structure.c ****             if (0u != pData->rw)
  90              		.loc 1 583 0
  91 0044 002A     		cmp	r2, #0
  92 0046 02D1     		bne	.L11
  93 0048 02E0     		b	.L3
  94              	.LVL4:
  95              	.L9:
 571:Generated_Source\PSoC4/BUTTON_Structure.c ****             }
  96              		.loc 1 571 0
  97 004a 0120     		movs	r0, #1
  98 004c 00E0     		b	.L3
ARM GAS  C:\Users\Lenovo\AppData\Local\Temp\cce7OzAT.s 			page 13


  99              	.LVL5:
 100              	.L11:
 584:Generated_Source\PSoC4/BUTTON_Structure.c ****             {
 585:Generated_Source\PSoC4/BUTTON_Structure.c ****                 result = CYRET_BAD_PARAM;
 101              		.loc 1 585 0
 102 004e 0120     		movs	r0, #1
 103              	.LVL6:
 104              	.L3:
 586:Generated_Source\PSoC4/BUTTON_Structure.c ****             }
 587:Generated_Source\PSoC4/BUTTON_Structure.c ****         }
 588:Generated_Source\PSoC4/BUTTON_Structure.c ****     #endif /* #if (0u != BUTTON_SELF_TEST_EN) */
 589:Generated_Source\PSoC4/BUTTON_Structure.c **** 
 590:Generated_Source\PSoC4/BUTTON_Structure.c ****     if (CYRET_SUCCESS == result)
 105              		.loc 1 590 0
 106 0050 0028     		cmp	r0, #0
 107 0052 11D1     		bne	.L5
 591:Generated_Source\PSoC4/BUTTON_Structure.c ****     {
 592:Generated_Source\PSoC4/BUTTON_Structure.c ****         /* Check parameter type, offset alignment */
 593:Generated_Source\PSoC4/BUTTON_Structure.c ****         switch (pData->type)
 108              		.loc 1 593 0
 109 0054 022E     		cmp	r6, #2
 110 0056 04D0     		beq	.L6
 111 0058 032E     		cmp	r6, #3
 112 005a 05D0     		beq	.L7
 113 005c 012E     		cmp	r6, #1
 114 005e 06D1     		bne	.L15
 115 0060 0AE0     		b	.L5
 116              	.L6:
 594:Generated_Source\PSoC4/BUTTON_Structure.c ****         {
 595:Generated_Source\PSoC4/BUTTON_Structure.c ****         case DS_PARAM_TYPE_UINT16:
 596:Generated_Source\PSoC4/BUTTON_Structure.c ****             if (0u != (pData->offset & UINT16_ALIGN_MASK))
 117              		.loc 1 596 0
 118 0062 EB07     		lsls	r3, r5, #31
 119 0064 05D4     		bmi	.L13
 120 0066 07E0     		b	.L5
 121              	.L7:
 597:Generated_Source\PSoC4/BUTTON_Structure.c ****             {
 598:Generated_Source\PSoC4/BUTTON_Structure.c ****                 result = CYRET_BAD_PARAM;
 599:Generated_Source\PSoC4/BUTTON_Structure.c ****             }
 600:Generated_Source\PSoC4/BUTTON_Structure.c ****             break;
 601:Generated_Source\PSoC4/BUTTON_Structure.c **** 
 602:Generated_Source\PSoC4/BUTTON_Structure.c ****         case DS_PARAM_TYPE_UINT32:
 603:Generated_Source\PSoC4/BUTTON_Structure.c ****             if (0u != (pData->offset & UINT32_ALIGN_MASK))
 122              		.loc 1 603 0
 123 0068 AB07     		lsls	r3, r5, #30
 124 006a 04D1     		bne	.L14
 125 006c 04E0     		b	.L5
 126              	.L15:
 604:Generated_Source\PSoC4/BUTTON_Structure.c ****             {
 605:Generated_Source\PSoC4/BUTTON_Structure.c ****                 result = CYRET_BAD_PARAM;
 606:Generated_Source\PSoC4/BUTTON_Structure.c ****             }
 607:Generated_Source\PSoC4/BUTTON_Structure.c ****             break;
 608:Generated_Source\PSoC4/BUTTON_Structure.c **** 
 609:Generated_Source\PSoC4/BUTTON_Structure.c ****         case DS_PARAM_TYPE_UINT8:
 610:Generated_Source\PSoC4/BUTTON_Structure.c ****             break;
 611:Generated_Source\PSoC4/BUTTON_Structure.c **** 
 612:Generated_Source\PSoC4/BUTTON_Structure.c ****         default:
ARM GAS  C:\Users\Lenovo\AppData\Local\Temp\cce7OzAT.s 			page 14


 613:Generated_Source\PSoC4/BUTTON_Structure.c ****             result = CYRET_BAD_PARAM;
 127              		.loc 1 613 0
 128 006e 0120     		movs	r0, #1
 129              	.LVL7:
 130 0070 02E0     		b	.L5
 131              	.LVL8:
 132              	.L13:
 598:Generated_Source\PSoC4/BUTTON_Structure.c ****             }
 133              		.loc 1 598 0
 134 0072 0120     		movs	r0, #1
 135              	.LVL9:
 136 0074 00E0     		b	.L5
 137              	.LVL10:
 138              	.L14:
 605:Generated_Source\PSoC4/BUTTON_Structure.c ****             }
 139              		.loc 1 605 0
 140 0076 0120     		movs	r0, #1
 141              	.LVL11:
 142              	.L5:
 614:Generated_Source\PSoC4/BUTTON_Structure.c ****             break;
 615:Generated_Source\PSoC4/BUTTON_Structure.c ****         }
 616:Generated_Source\PSoC4/BUTTON_Structure.c ****     }
 617:Generated_Source\PSoC4/BUTTON_Structure.c **** 
 618:Generated_Source\PSoC4/BUTTON_Structure.c ****     return result;
 619:Generated_Source\PSoC4/BUTTON_Structure.c **** }
 143              		.loc 1 619 0
 144              		@ sp needed
 145 0078 70BD     		pop	{r4, r5, r6, pc}
 146              		.cfi_endproc
 147              	.LFE2:
 148              		.size	DsParseParamId, .-DsParseParamId
 149 007a C046     		.section	.text.BUTTON_DsInitialize,"ax",%progbits
 150              		.align	2
 151              		.global	BUTTON_DsInitialize
 152              		.code	16
 153              		.thumb_func
 154              		.type	BUTTON_DsInitialize, %function
 155              	BUTTON_DsInitialize:
 156              	.LFB1:
 263:Generated_Source\PSoC4/BUTTON_Structure.c ****     #if ((BUTTON_ENABLE == BUTTON_CSX_EN) || \
 157              		.loc 1 263 0
 158              		.cfi_startproc
 159              		@ args = 0, pretend = 0, frame = 0
 160              		@ frame_needed = 0, uses_anonymous_args = 0
 161 0000 70B5     		push	{r4, r5, r6, lr}
 162              		.cfi_def_cfa_offset 16
 163              		.cfi_offset 4, -16
 164              		.cfi_offset 5, -12
 165              		.cfi_offset 6, -8
 166              		.cfi_offset 14, -4
 167              	.LVL12:
 284:Generated_Source\PSoC4/BUTTON_Structure.c **** 
 168              		.loc 1 284 0
 169 0002 194C     		ldr	r4, .L21
 170 0004 4422     		movs	r2, #68
 171 0006 0021     		movs	r1, #0
 172 0008 2000     		movs	r0, r4
ARM GAS  C:\Users\Lenovo\AppData\Local\Temp\cce7OzAT.s 			page 15


 173 000a FFF7FEFF 		bl	memset
 174              	.LVL13:
 287:Generated_Source\PSoC4/BUTTON_Structure.c ****     BUTTON_dsRam.deviceId = BUTTON_DEVICE_ID;
 175              		.loc 1 287 0
 176 000e 174B     		ldr	r3, .L21+4
 177 0010 2380     		strh	r3, [r4]
 288:Generated_Source\PSoC4/BUTTON_Structure.c ****     BUTTON_dsRam.hwClock = BUTTON_HW_CLOCK;
 178              		.loc 1 288 0
 179 0012 9023     		movs	r3, #144
 180 0014 1B01     		lsls	r3, r3, #4
 181 0016 6380     		strh	r3, [r4, #2]
 289:Generated_Source\PSoC4/BUTTON_Structure.c **** 
 182              		.loc 1 289 0
 183 0018 154B     		ldr	r3, .L21+8
 184 001a A380     		strh	r3, [r4, #4]
 292:Generated_Source\PSoC4/BUTTON_Structure.c **** 
 185              		.loc 1 292 0
 186 001c 8423     		movs	r3, #132
 187 001e 5B00     		lsls	r3, r3, #1
 188 0020 6383     		strh	r3, [r4, #26]
 294:Generated_Source\PSoC4/BUTTON_Structure.c ****     #if (0u != BUTTON_TOTAL_CSD_WIDGETS)
 189              		.loc 1 294 0
 190 0022 0322     		movs	r2, #3
 191 0024 C53B     		subs	r3, r3, #197
 192 0026 E254     		strb	r2, [r4, r3]
 296:Generated_Source\PSoC4/BUTTON_Structure.c ****         BUTTON_dsRam.scanCsdISC = BUTTON_CSD_INACTIVE_SNS_CONNECTION;
 193              		.loc 1 296 0
 194 0028 423B     		subs	r3, r3, #66
 195 002a 2377     		strb	r3, [r4, #28]
 370:Generated_Source\PSoC4/BUTTON_Structure.c **** 
 196              		.loc 1 370 0
 197 002c 114D     		ldr	r5, .L21+12
 198 002e 2000     		movs	r0, r4
 199 0030 1E30     		adds	r0, r0, #30
 200 0032 2900     		movs	r1, r5
 201 0034 2431     		adds	r1, r1, #36
 202 0036 1132     		adds	r2, r2, #17
 203 0038 FFF7FEFF 		bl	memcpy
 204              	.LVL14:
 280:Generated_Source\PSoC4/BUTTON_Structure.c ****     #endif
 205              		.loc 1 280 0
 206 003c 2A00     		movs	r2, r5
 387:Generated_Source\PSoC4/BUTTON_Structure.c **** 
 207              		.loc 1 387 0
 208 003e 2C1D     		adds	r4, r5, #4
 389:Generated_Source\PSoC4/BUTTON_Structure.c ****         {
 209              		.loc 1 389 0
 210 0040 0123     		movs	r3, #1
 211 0042 0CE0     		b	.L17
 212              	.LVL15:
 213              	.L20:
 391:Generated_Source\PSoC4/BUTTON_Structure.c **** 
 214              		.loc 1 391 0
 215 0044 A168     		ldr	r1, [r4, #8]
 216              	.LVL16:
 393:Generated_Source\PSoC4/BUTTON_Structure.c ****             {
 217              		.loc 1 393 0
ARM GAS  C:\Users\Lenovo\AppData\Local\Temp\cce7OzAT.s 			page 16


 218 0046 238B     		ldrh	r3, [r4, #24]
 219              	.LVL17:
 220 0048 04E0     		b	.L18
 221              	.LVL18:
 222              	.L19:
 395:Generated_Source\PSoC4/BUTTON_Structure.c ****                 ptrIdacInit++;
 223              		.loc 1 395 0
 224 004a 1378     		ldrb	r3, [r2]
 225 004c 4B72     		strb	r3, [r1, #9]
 396:Generated_Source\PSoC4/BUTTON_Structure.c **** 
 226              		.loc 1 396 0
 227 004e 0132     		adds	r2, r2, #1
 228              	.LVL19:
 406:Generated_Source\PSoC4/BUTTON_Structure.c ****             }
 229              		.loc 1 406 0
 230 0050 0A31     		adds	r1, r1, #10
 231              	.LVL20:
 393:Generated_Source\PSoC4/BUTTON_Structure.c ****             {
 232              		.loc 1 393 0
 233 0052 0300     		movs	r3, r0
 234              	.LVL21:
 235              	.L18:
 393:Generated_Source\PSoC4/BUTTON_Structure.c ****             {
 236              		.loc 1 393 0 is_stmt 0 discriminator 1
 237 0054 581E     		subs	r0, r3, #1
 238              	.LVL22:
 239 0056 002B     		cmp	r3, #0
 240 0058 F7D1     		bne	.L19
 409:Generated_Source\PSoC4/BUTTON_Structure.c ****         }
 241              		.loc 1 409 0 is_stmt 1
 242 005a 2034     		adds	r4, r4, #32
 243              	.LVL23:
 389:Generated_Source\PSoC4/BUTTON_Structure.c ****         {
 244              		.loc 1 389 0
 245 005c 2B00     		movs	r3, r5
 246              	.LVL24:
 247              	.L17:
 389:Generated_Source\PSoC4/BUTTON_Structure.c ****         {
 248              		.loc 1 389 0 is_stmt 0 discriminator 1
 249 005e 5D1E     		subs	r5, r3, #1
 250              	.LVL25:
 251 0060 002B     		cmp	r3, #0
 252 0062 EFD1     		bne	.L20
 440:Generated_Source\PSoC4/BUTTON_Structure.c **** 
 253              		.loc 1 440 0 is_stmt 1
 254              		@ sp needed
 255              	.LVL26:
 256              	.LVL27:
 257 0064 70BD     		pop	{r4, r5, r6, pc}
 258              	.L22:
 259 0066 C046     		.align	2
 260              	.L21:
 261 0068 00000000 		.word	BUTTON_dsRam
 262 006c A4D8FFFF 		.word	-10076
 263 0070 B80B0000 		.word	3000
 264 0074 00000000 		.word	.LANCHOR0
 265              		.cfi_endproc
ARM GAS  C:\Users\Lenovo\AppData\Local\Temp\cce7OzAT.s 			page 17


 266              	.LFE1:
 267              		.size	BUTTON_DsInitialize, .-BUTTON_DsInitialize
 268              		.section	.text.BUTTON_GetParam,"ax",%progbits
 269              		.align	2
 270              		.global	BUTTON_GetParam
 271              		.code	16
 272              		.thumb_func
 273              		.type	BUTTON_GetParam, %function
 274              	BUTTON_GetParam:
 275              	.LFB3:
 620:Generated_Source\PSoC4/BUTTON_Structure.c **** 
 621:Generated_Source\PSoC4/BUTTON_Structure.c **** /*******************************************************************************
 622:Generated_Source\PSoC4/BUTTON_Structure.c **** * Function Name: BUTTON_GetParam
 623:Generated_Source\PSoC4/BUTTON_Structure.c **** ****************************************************************************//**
 624:Generated_Source\PSoC4/BUTTON_Structure.c **** *
 625:Generated_Source\PSoC4/BUTTON_Structure.c **** * \brief
 626:Generated_Source\PSoC4/BUTTON_Structure.c **** *  Gets the specified parameter value from the \ref group_structures.
 627:Generated_Source\PSoC4/BUTTON_Structure.c **** *
 628:Generated_Source\PSoC4/BUTTON_Structure.c **** * \details
 629:Generated_Source\PSoC4/BUTTON_Structure.c **** *  This function gets the value of the specified parameter by the paramId
 630:Generated_Source\PSoC4/BUTTON_Structure.c **** *  argument. The paramId for each register is available in the
 631:Generated_Source\PSoC4/BUTTON_Structure.c **** *  BUTTON RegisterMap header file as
 632:Generated_Source\PSoC4/BUTTON_Structure.c **** *  BUTTON_<ParameterName>_PARAM_ID. The paramId is a special
 633:Generated_Source\PSoC4/BUTTON_Structure.c **** *  enumerated value generated by the customizer. The format of paramId is as
 634:Generated_Source\PSoC4/BUTTON_Structure.c **** *  follows:
 635:Generated_Source\PSoC4/BUTTON_Structure.c **** *    1. [ byte 3 byte 2 byte 1 byte 0 ]
 636:Generated_Source\PSoC4/BUTTON_Structure.c **** *    2. [ TTWFCCCC UIIIIIII MMMMMMMM LLLLLLLL ]
 637:Generated_Source\PSoC4/BUTTON_Structure.c **** *    3. T - encodes the parameter type:
 638:Generated_Source\PSoC4/BUTTON_Structure.c **** *      - 01b: uint8
 639:Generated_Source\PSoC4/BUTTON_Structure.c **** *      - 10b: uint16
 640:Generated_Source\PSoC4/BUTTON_Structure.c **** *      - 11b: uint32
 641:Generated_Source\PSoC4/BUTTON_Structure.c **** *    4. W - indicates whether the parameter is writable:
 642:Generated_Source\PSoC4/BUTTON_Structure.c **** *      - 0: ReadOnly
 643:Generated_Source\PSoC4/BUTTON_Structure.c **** *      - 1: Read/Write
 644:Generated_Source\PSoC4/BUTTON_Structure.c **** *    5. C - 4 bit CRC (X^3 + 1) of the whole paramId word, the C bits are
 645:Generated_Source\PSoC4/BUTTON_Structure.c **** *       filled with 0s when the CRC is calculated.
 646:Generated_Source\PSoC4/BUTTON_Structure.c **** *    6. U - indicates if the parameter affects the RAM Widget Object CRC.
 647:Generated_Source\PSoC4/BUTTON_Structure.c **** *    7. I - specifies that the widgetId parameter belongs to
 648:Generated_Source\PSoC4/BUTTON_Structure.c **** *    8. M,L - the parameter offset MSB and LSB accordingly in:
 649:Generated_Source\PSoC4/BUTTON_Structure.c **** *      - Flash Data Structure if W bit is 0.
 650:Generated_Source\PSoC4/BUTTON_Structure.c **** *      - RAM Data Structure if W bit is 1.
 651:Generated_Source\PSoC4/BUTTON_Structure.c **** *
 652:Generated_Source\PSoC4/BUTTON_Structure.c **** *  Refer to the \ref group_structures section for details of the data structure
 653:Generated_Source\PSoC4/BUTTON_Structure.c **** *  organization and examples of its register access.
 654:Generated_Source\PSoC4/BUTTON_Structure.c **** *
 655:Generated_Source\PSoC4/BUTTON_Structure.c **** * \param paramId
 656:Generated_Source\PSoC4/BUTTON_Structure.c **** *  Specifies the ID of parameter to get its value.
 657:Generated_Source\PSoC4/BUTTON_Structure.c **** *  A macro for the parameter ID can be found in the BUTTON RegisterMap header
 658:Generated_Source\PSoC4/BUTTON_Structure.c **** *  file defined as BUTTON_<ParameterName>_PARAM_ID.
 659:Generated_Source\PSoC4/BUTTON_Structure.c **** *
 660:Generated_Source\PSoC4/BUTTON_Structure.c **** * \param value
 661:Generated_Source\PSoC4/BUTTON_Structure.c **** *  The pointer to a variable to be updated with the obtained value.
 662:Generated_Source\PSoC4/BUTTON_Structure.c **** *
 663:Generated_Source\PSoC4/BUTTON_Structure.c **** * \return
 664:Generated_Source\PSoC4/BUTTON_Structure.c **** *  Returns the status of the operation:
 665:Generated_Source\PSoC4/BUTTON_Structure.c **** *    - CYRET_SUCCESS - The operation is successfully completed.
 666:Generated_Source\PSoC4/BUTTON_Structure.c **** *    - CYRET_BAD_PARAM - The input parameter is invalid.
ARM GAS  C:\Users\Lenovo\AppData\Local\Temp\cce7OzAT.s 			page 18


 667:Generated_Source\PSoC4/BUTTON_Structure.c **** *
 668:Generated_Source\PSoC4/BUTTON_Structure.c **** *******************************************************************************/
 669:Generated_Source\PSoC4/BUTTON_Structure.c **** cystatus BUTTON_GetParam(uint32 paramId, uint32 *value)
 670:Generated_Source\PSoC4/BUTTON_Structure.c **** {
 276              		.loc 1 670 0
 277              		.cfi_startproc
 278              		@ args = 0, pretend = 0, frame = 8
 279              		@ frame_needed = 0, uses_anonymous_args = 0
 280              	.LVL28:
 281 0000 30B5     		push	{r4, r5, lr}
 282              		.cfi_def_cfa_offset 12
 283              		.cfi_offset 4, -12
 284              		.cfi_offset 5, -8
 285              		.cfi_offset 14, -4
 286 0002 83B0     		sub	sp, sp, #12
 287              		.cfi_def_cfa_offset 24
 288 0004 0D00     		movs	r5, r1
 671:Generated_Source\PSoC4/BUTTON_Structure.c ****     PARAM_ID_STRUCT pData;
 672:Generated_Source\PSoC4/BUTTON_Structure.c ****     cystatus result;
 673:Generated_Source\PSoC4/BUTTON_Structure.c **** 
 674:Generated_Source\PSoC4/BUTTON_Structure.c ****     union
 675:Generated_Source\PSoC4/BUTTON_Structure.c ****     {
 676:Generated_Source\PSoC4/BUTTON_Structure.c ****         volatile void   const * ptr;
 677:Generated_Source\PSoC4/BUTTON_Structure.c ****         volatile uint8  const * ptrUint8;
 678:Generated_Source\PSoC4/BUTTON_Structure.c ****         volatile uint16 const * ptrUint16;
 679:Generated_Source\PSoC4/BUTTON_Structure.c ****         volatile uint32 const * ptrUint32;
 680:Generated_Source\PSoC4/BUTTON_Structure.c ****     } ptrData;
 681:Generated_Source\PSoC4/BUTTON_Structure.c **** 
 682:Generated_Source\PSoC4/BUTTON_Structure.c ****     result = DsParseParamId(paramId, &pData);
 289              		.loc 1 682 0
 290 0006 6946     		mov	r1, sp
 291              	.LVL29:
 292 0008 FFF7FEFF 		bl	DsParseParamId
 293              	.LVL30:
 294 000c 041E     		subs	r4, r0, #0
 295              	.LVL31:
 683:Generated_Source\PSoC4/BUTTON_Structure.c **** 
 684:Generated_Source\PSoC4/BUTTON_Structure.c ****     /* Parse and validate paramId */
 685:Generated_Source\PSoC4/BUTTON_Structure.c ****     if (CYRET_SUCCESS == result)
 296              		.loc 1 685 0
 297 000e 1ED1     		bne	.L24
 686:Generated_Source\PSoC4/BUTTON_Structure.c ****     {
 687:Generated_Source\PSoC4/BUTTON_Structure.c ****         /* Get base address of parameter */
 688:Generated_Source\PSoC4/BUTTON_Structure.c ****         if (0u == pData.flash)
 298              		.loc 1 688 0
 299 0010 6B46     		mov	r3, sp
 300 0012 5B79     		ldrb	r3, [r3, #5]
 301 0014 002B     		cmp	r3, #0
 302 0016 01D1     		bne	.L25
 689:Generated_Source\PSoC4/BUTTON_Structure.c ****         {
 690:Generated_Source\PSoC4/BUTTON_Structure.c ****             ptrData.ptr = &BUTTON_dsRam;
 303              		.loc 1 690 0
 304 0018 0E4A     		ldr	r2, .L30
 305              	.LVL32:
 306 001a 01E0     		b	.L26
 307              	.L25:
 691:Generated_Source\PSoC4/BUTTON_Structure.c ****         }
ARM GAS  C:\Users\Lenovo\AppData\Local\Temp\cce7OzAT.s 			page 19


 692:Generated_Source\PSoC4/BUTTON_Structure.c ****         else
 693:Generated_Source\PSoC4/BUTTON_Structure.c ****         {
 694:Generated_Source\PSoC4/BUTTON_Structure.c ****             ptrData.ptr = &BUTTON_dsFlash;
 308              		.loc 1 694 0
 309 001c 0E4B     		ldr	r3, .L30+4
 310 001e 1A1D     		adds	r2, r3, #4
 311              	.L26:
 695:Generated_Source\PSoC4/BUTTON_Structure.c ****         }
 696:Generated_Source\PSoC4/BUTTON_Structure.c **** 
 697:Generated_Source\PSoC4/BUTTON_Structure.c ****         /* Add offset to base address */
 698:Generated_Source\PSoC4/BUTTON_Structure.c ****         ptrData.ptrUint8 += pData.offset;
 312              		.loc 1 698 0
 313 0020 6B46     		mov	r3, sp
 314 0022 1B88     		ldrh	r3, [r3]
 315              	.LVL33:
 316 0024 D318     		adds	r3, r2, r3
 699:Generated_Source\PSoC4/BUTTON_Structure.c **** 
 700:Generated_Source\PSoC4/BUTTON_Structure.c ****         /* Read data */
 701:Generated_Source\PSoC4/BUTTON_Structure.c ****         if (DS_PARAM_TYPE_UINT8 == pData.type)
 317              		.loc 1 701 0
 318 0026 6A46     		mov	r2, sp
 319              	.LVL34:
 320 0028 D279     		ldrb	r2, [r2, #7]
 321 002a 012A     		cmp	r2, #1
 322 002c 02D1     		bne	.L27
 702:Generated_Source\PSoC4/BUTTON_Structure.c ****         {
 703:Generated_Source\PSoC4/BUTTON_Structure.c ****             *value = (uint32) (*ptrData.ptrUint8);
 323              		.loc 1 703 0
 324 002e 1B78     		ldrb	r3, [r3]
 325 0030 2B60     		str	r3, [r5]
 326 0032 0CE0     		b	.L24
 327              	.L27:
 704:Generated_Source\PSoC4/BUTTON_Structure.c ****         }
 705:Generated_Source\PSoC4/BUTTON_Structure.c ****         else if (DS_PARAM_TYPE_UINT16 == pData.type)
 328              		.loc 1 705 0
 329 0034 022A     		cmp	r2, #2
 330 0036 02D1     		bne	.L28
 706:Generated_Source\PSoC4/BUTTON_Structure.c ****         {
 707:Generated_Source\PSoC4/BUTTON_Structure.c ****             *value = (uint32) (*ptrData.ptrUint16);
 331              		.loc 1 707 0
 332 0038 1B88     		ldrh	r3, [r3]
 333 003a 2B60     		str	r3, [r5]
 334 003c 07E0     		b	.L24
 335              	.L28:
 708:Generated_Source\PSoC4/BUTTON_Structure.c ****         }
 709:Generated_Source\PSoC4/BUTTON_Structure.c ****         else if (DS_PARAM_TYPE_UINT32 == pData.type)
 336              		.loc 1 709 0
 337 003e 032A     		cmp	r2, #3
 338 0040 02D1     		bne	.L29
 710:Generated_Source\PSoC4/BUTTON_Structure.c ****         {
 711:Generated_Source\PSoC4/BUTTON_Structure.c ****             *value = *ptrData.ptrUint32;
 339              		.loc 1 711 0
 340 0042 1B68     		ldr	r3, [r3]
 341 0044 2B60     		str	r3, [r5]
 342 0046 02E0     		b	.L24
 343              	.L29:
 712:Generated_Source\PSoC4/BUTTON_Structure.c ****         }
ARM GAS  C:\Users\Lenovo\AppData\Local\Temp\cce7OzAT.s 			page 20


 713:Generated_Source\PSoC4/BUTTON_Structure.c ****         else
 714:Generated_Source\PSoC4/BUTTON_Structure.c ****         {
 715:Generated_Source\PSoC4/BUTTON_Structure.c ****             /* Parameter comes here already validated. */
 716:Generated_Source\PSoC4/BUTTON_Structure.c ****             CYASSERT(0u);
 344              		.loc 1 716 0 discriminator 1
 345 0048 0020     		movs	r0, #0
 346              	.LVL35:
 347 004a FFF7FEFF 		bl	CyHalt
 348              	.LVL36:
 349              	.L24:
 717:Generated_Source\PSoC4/BUTTON_Structure.c ****         }
 718:Generated_Source\PSoC4/BUTTON_Structure.c ****     }
 719:Generated_Source\PSoC4/BUTTON_Structure.c **** 
 720:Generated_Source\PSoC4/BUTTON_Structure.c ****     return result;
 721:Generated_Source\PSoC4/BUTTON_Structure.c **** }
 350              		.loc 1 721 0
 351 004e 2000     		movs	r0, r4
 352 0050 03B0     		add	sp, sp, #12
 353              		@ sp needed
 354              	.LVL37:
 355              	.LVL38:
 356 0052 30BD     		pop	{r4, r5, pc}
 357              	.L31:
 358              		.align	2
 359              	.L30:
 360 0054 00000000 		.word	BUTTON_dsRam
 361 0058 00000000 		.word	.LANCHOR0
 362              		.cfi_endproc
 363              	.LFE3:
 364              		.size	BUTTON_GetParam, .-BUTTON_GetParam
 365              		.section	.text.BUTTON_SetParam,"ax",%progbits
 366              		.align	2
 367              		.global	BUTTON_SetParam
 368              		.code	16
 369              		.thumb_func
 370              		.type	BUTTON_SetParam, %function
 371              	BUTTON_SetParam:
 372              	.LFB4:
 722:Generated_Source\PSoC4/BUTTON_Structure.c **** 
 723:Generated_Source\PSoC4/BUTTON_Structure.c **** 
 724:Generated_Source\PSoC4/BUTTON_Structure.c **** /*******************************************************************************
 725:Generated_Source\PSoC4/BUTTON_Structure.c **** * Function Name: BUTTON_SetParam
 726:Generated_Source\PSoC4/BUTTON_Structure.c **** ****************************************************************************//**
 727:Generated_Source\PSoC4/BUTTON_Structure.c **** *
 728:Generated_Source\PSoC4/BUTTON_Structure.c **** * \brief
 729:Generated_Source\PSoC4/BUTTON_Structure.c **** *  Sets a new value for the specified parameter in the \ref group_structures.
 730:Generated_Source\PSoC4/BUTTON_Structure.c **** *
 731:Generated_Source\PSoC4/BUTTON_Structure.c **** * \details
 732:Generated_Source\PSoC4/BUTTON_Structure.c **** *  This function sets the value of the specified parameter by the paramId
 733:Generated_Source\PSoC4/BUTTON_Structure.c **** *  argument. The paramId for each register is available in the
 734:Generated_Source\PSoC4/BUTTON_Structure.c **** *  BUTTON RegisterMap header file as
 735:Generated_Source\PSoC4/BUTTON_Structure.c **** *  BUTTON_<ParameterName>_PARAM_ID. The paramId is a special
 736:Generated_Source\PSoC4/BUTTON_Structure.c **** *  enumerated value generated by the customizer. The format of paramId is as
 737:Generated_Source\PSoC4/BUTTON_Structure.c **** *  follows:
 738:Generated_Source\PSoC4/BUTTON_Structure.c **** *    1. [ byte 3 byte 2 byte 1 byte 0 ]
 739:Generated_Source\PSoC4/BUTTON_Structure.c **** *    2. [ TTWFCCCC UIIIIIII MMMMMMMM LLLLLLLL ]
 740:Generated_Source\PSoC4/BUTTON_Structure.c **** *    3. T - encodes the parameter type:
ARM GAS  C:\Users\Lenovo\AppData\Local\Temp\cce7OzAT.s 			page 21


 741:Generated_Source\PSoC4/BUTTON_Structure.c **** *      - 01b: uint8
 742:Generated_Source\PSoC4/BUTTON_Structure.c **** *      - 10b: uint16
 743:Generated_Source\PSoC4/BUTTON_Structure.c **** *      - 11b: uint32
 744:Generated_Source\PSoC4/BUTTON_Structure.c **** *    4. W - indicates whether the parameter is writable:
 745:Generated_Source\PSoC4/BUTTON_Structure.c **** *      - 0: ReadOnly
 746:Generated_Source\PSoC4/BUTTON_Structure.c **** *      - 1: Read/Write
 747:Generated_Source\PSoC4/BUTTON_Structure.c **** *    5. C - 4 bit CRC (X^3 + 1) of the whole paramId word, the C bits are
 748:Generated_Source\PSoC4/BUTTON_Structure.c **** *       filled with 0s when the CRC is calculated.
 749:Generated_Source\PSoC4/BUTTON_Structure.c **** *    6. U - indicates if the parameter affects the RAM Widget Object CRC.
 750:Generated_Source\PSoC4/BUTTON_Structure.c **** *    7. I - specifies that the widgetId parameter belongs to
 751:Generated_Source\PSoC4/BUTTON_Structure.c **** *    8. M,L - the parameter offset MSB and LSB accordingly in:
 752:Generated_Source\PSoC4/BUTTON_Structure.c **** *      - Flash Data Structure if W bit is 0.
 753:Generated_Source\PSoC4/BUTTON_Structure.c **** *      - RAM Data Structure if W bit is 1.
 754:Generated_Source\PSoC4/BUTTON_Structure.c **** *
 755:Generated_Source\PSoC4/BUTTON_Structure.c **** *  Refer to the \ref group_structures section for details of the data structure
 756:Generated_Source\PSoC4/BUTTON_Structure.c **** *  organization and examples of its register access.
 757:Generated_Source\PSoC4/BUTTON_Structure.c **** *
 758:Generated_Source\PSoC4/BUTTON_Structure.c **** *  This function writes specified value into the desired register without
 759:Generated_Source\PSoC4/BUTTON_Structure.c **** *  other registers update. It is application layer responsibility to keep all
 760:Generated_Source\PSoC4/BUTTON_Structure.c **** *  the data structure registers aligned. Repeated call of
 761:Generated_Source\PSoC4/BUTTON_Structure.c **** *  BUTTON_Start() function helps aligning dependent register values.
 762:Generated_Source\PSoC4/BUTTON_Structure.c **** *
 763:Generated_Source\PSoC4/BUTTON_Structure.c **** * \param paramId
 764:Generated_Source\PSoC4/BUTTON_Structure.c **** *  Specifies the ID of parameter to set its value.
 765:Generated_Source\PSoC4/BUTTON_Structure.c **** *  A macro for the parameter ID can be found in the BUTTON RegisterMap header
 766:Generated_Source\PSoC4/BUTTON_Structure.c **** *  file defined as BUTTON_<ParameterName>_PARAM_ID.
 767:Generated_Source\PSoC4/BUTTON_Structure.c **** 
 768:Generated_Source\PSoC4/BUTTON_Structure.c **** * \param value
 769:Generated_Source\PSoC4/BUTTON_Structure.c **** *  Specifies the new parameter's value.
 770:Generated_Source\PSoC4/BUTTON_Structure.c **** *
 771:Generated_Source\PSoC4/BUTTON_Structure.c **** * \return
 772:Generated_Source\PSoC4/BUTTON_Structure.c **** *  Returns the status of the operation:
 773:Generated_Source\PSoC4/BUTTON_Structure.c **** *    - CYRET_SUCCESS - The operation is successfully completed.
 774:Generated_Source\PSoC4/BUTTON_Structure.c **** *    - CYRET_BAD_PARAM - The input parameter is invalid.
 775:Generated_Source\PSoC4/BUTTON_Structure.c **** *
 776:Generated_Source\PSoC4/BUTTON_Structure.c **** *******************************************************************************/
 777:Generated_Source\PSoC4/BUTTON_Structure.c **** cystatus BUTTON_SetParam(uint32 paramId, uint32 value)
 778:Generated_Source\PSoC4/BUTTON_Structure.c **** {
 373              		.loc 1 778 0
 374              		.cfi_startproc
 375              		@ args = 0, pretend = 0, frame = 8
 376              		@ frame_needed = 0, uses_anonymous_args = 0
 377              	.LVL39:
 378 0000 30B5     		push	{r4, r5, lr}
 379              		.cfi_def_cfa_offset 12
 380              		.cfi_offset 4, -12
 381              		.cfi_offset 5, -8
 382              		.cfi_offset 14, -4
 383 0002 83B0     		sub	sp, sp, #12
 384              		.cfi_def_cfa_offset 24
 385 0004 0D00     		movs	r5, r1
 779:Generated_Source\PSoC4/BUTTON_Structure.c ****     cystatus result;
 780:Generated_Source\PSoC4/BUTTON_Structure.c ****     PARAM_ID_STRUCT pData;
 781:Generated_Source\PSoC4/BUTTON_Structure.c **** 
 782:Generated_Source\PSoC4/BUTTON_Structure.c ****     union
 783:Generated_Source\PSoC4/BUTTON_Structure.c ****     {
 784:Generated_Source\PSoC4/BUTTON_Structure.c ****         volatile void   * ptr;
ARM GAS  C:\Users\Lenovo\AppData\Local\Temp\cce7OzAT.s 			page 22


 785:Generated_Source\PSoC4/BUTTON_Structure.c ****         volatile uint8  * ptrUint8;
 786:Generated_Source\PSoC4/BUTTON_Structure.c ****         volatile uint16 * ptrUint16;
 787:Generated_Source\PSoC4/BUTTON_Structure.c ****         volatile uint32 * ptrUint32;
 788:Generated_Source\PSoC4/BUTTON_Structure.c ****     } ptrData;
 789:Generated_Source\PSoC4/BUTTON_Structure.c **** 
 790:Generated_Source\PSoC4/BUTTON_Structure.c ****     result = DsParseParamId(paramId, &pData);
 386              		.loc 1 790 0
 387 0006 6946     		mov	r1, sp
 388              	.LVL40:
 389 0008 FFF7FEFF 		bl	DsParseParamId
 390              	.LVL41:
 391 000c 041E     		subs	r4, r0, #0
 392              	.LVL42:
 791:Generated_Source\PSoC4/BUTTON_Structure.c **** 
 792:Generated_Source\PSoC4/BUTTON_Structure.c ****     /* verify if parameter is writable */
 793:Generated_Source\PSoC4/BUTTON_Structure.c ****     if (CYRET_SUCCESS == result)
 393              		.loc 1 793 0
 394 000e 04D1     		bne	.L33
 794:Generated_Source\PSoC4/BUTTON_Structure.c ****     {
 795:Generated_Source\PSoC4/BUTTON_Structure.c ****         if (0u == pData.rw)
 395              		.loc 1 795 0
 396 0010 6B46     		mov	r3, sp
 397 0012 9B79     		ldrb	r3, [r3, #6]
 398 0014 002B     		cmp	r3, #0
 399 0016 00D1     		bne	.L33
 796:Generated_Source\PSoC4/BUTTON_Structure.c ****         {
 797:Generated_Source\PSoC4/BUTTON_Structure.c ****             result = CYRET_BAD_PARAM;
 400              		.loc 1 797 0
 401 0018 0134     		adds	r4, r4, #1
 402              	.L33:
 403              	.LVL43:
 798:Generated_Source\PSoC4/BUTTON_Structure.c ****         }
 799:Generated_Source\PSoC4/BUTTON_Structure.c ****     }
 800:Generated_Source\PSoC4/BUTTON_Structure.c **** 
 801:Generated_Source\PSoC4/BUTTON_Structure.c ****     /* Parse and validate paramId */
 802:Generated_Source\PSoC4/BUTTON_Structure.c ****     if (CYRET_SUCCESS == result)
 404              		.loc 1 802 0
 405 001a 002C     		cmp	r4, #0
 406 001c 16D1     		bne	.L34
 803:Generated_Source\PSoC4/BUTTON_Structure.c ****     {
 804:Generated_Source\PSoC4/BUTTON_Structure.c ****         /* Get base address of parameter */
 805:Generated_Source\PSoC4/BUTTON_Structure.c ****         ptrData.ptr = &BUTTON_dsRam;
 806:Generated_Source\PSoC4/BUTTON_Structure.c **** 
 807:Generated_Source\PSoC4/BUTTON_Structure.c ****         /* Add offset to base address */
 808:Generated_Source\PSoC4/BUTTON_Structure.c ****         ptrData.ptrUint8 += pData.offset;
 407              		.loc 1 808 0
 408 001e 6B46     		mov	r3, sp
 409 0020 1A88     		ldrh	r2, [r3]
 410 0022 0C4B     		ldr	r3, .L39
 411 0024 D318     		adds	r3, r2, r3
 809:Generated_Source\PSoC4/BUTTON_Structure.c **** 
 810:Generated_Source\PSoC4/BUTTON_Structure.c ****         /* Write data */
 811:Generated_Source\PSoC4/BUTTON_Structure.c ****         if (DS_PARAM_TYPE_UINT8 == pData.type)
 412              		.loc 1 811 0
 413 0026 6A46     		mov	r2, sp
 414 0028 D279     		ldrb	r2, [r2, #7]
 415 002a 012A     		cmp	r2, #1
ARM GAS  C:\Users\Lenovo\AppData\Local\Temp\cce7OzAT.s 			page 23


 416 002c 02D1     		bne	.L35
 812:Generated_Source\PSoC4/BUTTON_Structure.c ****         {
 813:Generated_Source\PSoC4/BUTTON_Structure.c ****             *ptrData.ptrUint8 = LO8(value);
 417              		.loc 1 813 0
 418 002e EDB2     		uxtb	r5, r5
 419              	.LVL44:
 420 0030 1D70     		strb	r5, [r3]
 421 0032 0BE0     		b	.L34
 422              	.LVL45:
 423              	.L35:
 814:Generated_Source\PSoC4/BUTTON_Structure.c ****         }
 815:Generated_Source\PSoC4/BUTTON_Structure.c ****         else if (DS_PARAM_TYPE_UINT16 == pData.type)
 424              		.loc 1 815 0
 425 0034 022A     		cmp	r2, #2
 426 0036 02D1     		bne	.L36
 816:Generated_Source\PSoC4/BUTTON_Structure.c ****         {
 817:Generated_Source\PSoC4/BUTTON_Structure.c ****             *ptrData.ptrUint16 = LO16(value);
 427              		.loc 1 817 0
 428 0038 ADB2     		uxth	r5, r5
 429              	.LVL46:
 430 003a 1D80     		strh	r5, [r3]
 431 003c 06E0     		b	.L34
 432              	.LVL47:
 433              	.L36:
 818:Generated_Source\PSoC4/BUTTON_Structure.c ****         }
 819:Generated_Source\PSoC4/BUTTON_Structure.c ****         else if (DS_PARAM_TYPE_UINT32 == pData.type)
 434              		.loc 1 819 0
 435 003e 032A     		cmp	r2, #3
 436 0040 01D1     		bne	.L37
 820:Generated_Source\PSoC4/BUTTON_Structure.c ****         {
 821:Generated_Source\PSoC4/BUTTON_Structure.c ****             *ptrData.ptrUint32 = value;
 437              		.loc 1 821 0
 438 0042 1D60     		str	r5, [r3]
 439 0044 02E0     		b	.L34
 440              	.L37:
 822:Generated_Source\PSoC4/BUTTON_Structure.c ****         }
 823:Generated_Source\PSoC4/BUTTON_Structure.c ****         else
 824:Generated_Source\PSoC4/BUTTON_Structure.c ****         {
 825:Generated_Source\PSoC4/BUTTON_Structure.c ****             /* Parameter comes here already validated. */
 826:Generated_Source\PSoC4/BUTTON_Structure.c ****             CYASSERT(0u);
 441              		.loc 1 826 0 discriminator 1
 442 0046 0020     		movs	r0, #0
 443 0048 FFF7FEFF 		bl	CyHalt
 444              	.LVL48:
 445              	.L34:
 827:Generated_Source\PSoC4/BUTTON_Structure.c ****         }
 828:Generated_Source\PSoC4/BUTTON_Structure.c **** 
 829:Generated_Source\PSoC4/BUTTON_Structure.c ****         #if (BUTTON_ENABLE == (BUTTON_TST_WDGT_CRC_EN || BUTTON_TST_GLOBAL_CRC_EN))
 830:Generated_Source\PSoC4/BUTTON_Structure.c ****             /* Update widget or global CRC if self-test is enabled and parameter affects it */
 831:Generated_Source\PSoC4/BUTTON_Structure.c ****             if (0u != pData.affectsCrc)
 832:Generated_Source\PSoC4/BUTTON_Structure.c ****             {
 833:Generated_Source\PSoC4/BUTTON_Structure.c ****                 if ((ptrData.ptrUint16 >= &BUTTON_dsRam.csd0Config) &&
 834:Generated_Source\PSoC4/BUTTON_Structure.c ****                     (ptrData.ptrUint16 <  &BUTTON_dsRam.glbCrc))
 835:Generated_Source\PSoC4/BUTTON_Structure.c ****                 {
 836:Generated_Source\PSoC4/BUTTON_Structure.c **** 
 837:Generated_Source\PSoC4/BUTTON_Structure.c ****                     #if (BUTTON_ENABLE == BUTTON_TST_GLOBAL_CRC_EN)
 838:Generated_Source\PSoC4/BUTTON_Structure.c ****                         BUTTON_DsUpdateGlobalCrc();
ARM GAS  C:\Users\Lenovo\AppData\Local\Temp\cce7OzAT.s 			page 24


 839:Generated_Source\PSoC4/BUTTON_Structure.c ****                     #endif /* (BUTTON_ENABLE == BUTTON_TST_GLOBAL_CRC_EN) */
 840:Generated_Source\PSoC4/BUTTON_Structure.c **** 
 841:Generated_Source\PSoC4/BUTTON_Structure.c ****                 }
 842:Generated_Source\PSoC4/BUTTON_Structure.c ****                 else
 843:Generated_Source\PSoC4/BUTTON_Structure.c ****                 {
 844:Generated_Source\PSoC4/BUTTON_Structure.c ****                     #if (BUTTON_ENABLE == BUTTON_TST_WDGT_CRC_EN)
 845:Generated_Source\PSoC4/BUTTON_Structure.c ****                         BUTTON_DsUpdateWidgetCrc((uint32)pData.widgetId);
 846:Generated_Source\PSoC4/BUTTON_Structure.c ****                     #endif /* (BUTTON_ENABLE == BUTTON_TST_WDGT_CRC_EN) */
 847:Generated_Source\PSoC4/BUTTON_Structure.c ****                 }
 848:Generated_Source\PSoC4/BUTTON_Structure.c ****             }
 849:Generated_Source\PSoC4/BUTTON_Structure.c ****         #endif /* (BUTTON_ENABLE == (BUTTON_TST_WDGT_CRC_EN || BUTTON_TST_GLOBAL_CRC_EN)) */
 850:Generated_Source\PSoC4/BUTTON_Structure.c ****     }
 851:Generated_Source\PSoC4/BUTTON_Structure.c **** 
 852:Generated_Source\PSoC4/BUTTON_Structure.c ****     return result;
 853:Generated_Source\PSoC4/BUTTON_Structure.c **** }
 446              		.loc 1 853 0
 447 004c 2000     		movs	r0, r4
 448 004e 03B0     		add	sp, sp, #12
 449              		@ sp needed
 450              	.LVL49:
 451 0050 30BD     		pop	{r4, r5, pc}
 452              	.L40:
 453 0052 C046     		.align	2
 454              	.L39:
 455 0054 00000000 		.word	BUTTON_dsRam
 456              		.cfi_endproc
 457              	.LFE4:
 458              		.size	BUTTON_SetParam, .-BUTTON_SetParam
 459              		.section	.text.BUTTON_IsAnyWidgetActive,"ax",%progbits
 460              		.align	2
 461              		.global	BUTTON_IsAnyWidgetActive
 462              		.code	16
 463              		.thumb_func
 464              		.type	BUTTON_IsAnyWidgetActive, %function
 465              	BUTTON_IsAnyWidgetActive:
 466              	.LFB5:
 854:Generated_Source\PSoC4/BUTTON_Structure.c **** 
 855:Generated_Source\PSoC4/BUTTON_Structure.c **** /*******************************************************************************
 856:Generated_Source\PSoC4/BUTTON_Structure.c **** * Function Name: BUTTON_IsAnyWidgetActive
 857:Generated_Source\PSoC4/BUTTON_Structure.c **** ****************************************************************************//**
 858:Generated_Source\PSoC4/BUTTON_Structure.c **** *
 859:Generated_Source\PSoC4/BUTTON_Structure.c **** * \brief
 860:Generated_Source\PSoC4/BUTTON_Structure.c **** *  Reports if any widget has detected a touch.
 861:Generated_Source\PSoC4/BUTTON_Structure.c **** *
 862:Generated_Source\PSoC4/BUTTON_Structure.c **** * \details
 863:Generated_Source\PSoC4/BUTTON_Structure.c **** *  This function reports if any widget has detected a touch or not by extracting
 864:Generated_Source\PSoC4/BUTTON_Structure.c **** *  information from the wdgtStatus registers
 865:Generated_Source\PSoC4/BUTTON_Structure.c **** *  (BUTTON_WDGT_STATUS<X>_VALUE). This function does not process a
 866:Generated_Source\PSoC4/BUTTON_Structure.c **** *  widget but extracts processed results from the \ref group_structures.
 867:Generated_Source\PSoC4/BUTTON_Structure.c **** *
 868:Generated_Source\PSoC4/BUTTON_Structure.c **** * \return
 869:Generated_Source\PSoC4/BUTTON_Structure.c **** *   Returns the touch detection status of all the widgets:
 870:Generated_Source\PSoC4/BUTTON_Structure.c **** *     - Zero - No touch is detected in all the widgets or sensors.
 871:Generated_Source\PSoC4/BUTTON_Structure.c **** *     - Non-zero - At least one widget or sensor detected a touch.
 872:Generated_Source\PSoC4/BUTTON_Structure.c **** *
 873:Generated_Source\PSoC4/BUTTON_Structure.c **** *******************************************************************************/
 874:Generated_Source\PSoC4/BUTTON_Structure.c **** uint32 BUTTON_IsAnyWidgetActive(void)
ARM GAS  C:\Users\Lenovo\AppData\Local\Temp\cce7OzAT.s 			page 25


 875:Generated_Source\PSoC4/BUTTON_Structure.c **** {
 467              		.loc 1 875 0
 468              		.cfi_startproc
 469              		@ args = 0, pretend = 0, frame = 0
 470              		@ frame_needed = 0, uses_anonymous_args = 0
 471              		@ link register save eliminated.
 472              	.LVL50:
 876:Generated_Source\PSoC4/BUTTON_Structure.c ****     uint32 result = 0Lu;
 877:Generated_Source\PSoC4/BUTTON_Structure.c ****     uint32 wdWord;
 878:Generated_Source\PSoC4/BUTTON_Structure.c **** 
 879:Generated_Source\PSoC4/BUTTON_Structure.c ****     for (wdWord = BUTTON_WDGT_STATUS_WORDS; wdWord-- > 0u;)
 473              		.loc 1 879 0
 474 0000 0123     		movs	r3, #1
 876:Generated_Source\PSoC4/BUTTON_Structure.c ****     uint32 result = 0Lu;
 475              		.loc 1 876 0
 476 0002 0020     		movs	r0, #0
 477              		.loc 1 879 0
 478 0004 06E0     		b	.L42
 479              	.LVL51:
 480              	.L43:
 880:Generated_Source\PSoC4/BUTTON_Structure.c ****     {
 881:Generated_Source\PSoC4/BUTTON_Structure.c ****         result |= BUTTON_dsRam.wdgtStatus[wdWord];
 481              		.loc 1 881 0
 482 0006 131D     		adds	r3, r2, #4
 483 0008 9B00     		lsls	r3, r3, #2
 484 000a 0449     		ldr	r1, .L44
 485 000c CB18     		adds	r3, r1, r3
 486 000e 5B68     		ldr	r3, [r3, #4]
 487 0010 1843     		orrs	r0, r3
 488              	.LVL52:
 879:Generated_Source\PSoC4/BUTTON_Structure.c ****     {
 489              		.loc 1 879 0
 490 0012 1300     		movs	r3, r2
 491              	.LVL53:
 492              	.L42:
 879:Generated_Source\PSoC4/BUTTON_Structure.c ****     {
 493              		.loc 1 879 0 is_stmt 0 discriminator 1
 494 0014 5A1E     		subs	r2, r3, #1
 495              	.LVL54:
 496 0016 002B     		cmp	r3, #0
 497 0018 F5D1     		bne	.L43
 882:Generated_Source\PSoC4/BUTTON_Structure.c ****     }
 883:Generated_Source\PSoC4/BUTTON_Structure.c **** 
 884:Generated_Source\PSoC4/BUTTON_Structure.c ****     return result;
 885:Generated_Source\PSoC4/BUTTON_Structure.c **** }
 498              		.loc 1 885 0 is_stmt 1
 499              		@ sp needed
 500 001a 7047     		bx	lr
 501              	.L45:
 502              		.align	2
 503              	.L44:
 504 001c 00000000 		.word	BUTTON_dsRam
 505              		.cfi_endproc
 506              	.LFE5:
 507              		.size	BUTTON_IsAnyWidgetActive, .-BUTTON_IsAnyWidgetActive
 508              		.section	.text.BUTTON_IsWidgetActive,"ax",%progbits
 509              		.align	2
ARM GAS  C:\Users\Lenovo\AppData\Local\Temp\cce7OzAT.s 			page 26


 510              		.global	BUTTON_IsWidgetActive
 511              		.code	16
 512              		.thumb_func
 513              		.type	BUTTON_IsWidgetActive, %function
 514              	BUTTON_IsWidgetActive:
 515              	.LFB6:
 886:Generated_Source\PSoC4/BUTTON_Structure.c **** 
 887:Generated_Source\PSoC4/BUTTON_Structure.c **** 
 888:Generated_Source\PSoC4/BUTTON_Structure.c **** /*******************************************************************************
 889:Generated_Source\PSoC4/BUTTON_Structure.c **** * Function Name: BUTTON_IsWidgetActive
 890:Generated_Source\PSoC4/BUTTON_Structure.c **** ****************************************************************************//**
 891:Generated_Source\PSoC4/BUTTON_Structure.c **** *
 892:Generated_Source\PSoC4/BUTTON_Structure.c **** * \brief
 893:Generated_Source\PSoC4/BUTTON_Structure.c **** *  Reports if the specified widget detects a touch on any of its sensors.
 894:Generated_Source\PSoC4/BUTTON_Structure.c **** *
 895:Generated_Source\PSoC4/BUTTON_Structure.c **** * \details
 896:Generated_Source\PSoC4/BUTTON_Structure.c **** *  This function reports if the specified widget has detected a touch or not by
 897:Generated_Source\PSoC4/BUTTON_Structure.c **** *  extracting information from the wdgtStatus registers
 898:Generated_Source\PSoC4/BUTTON_Structure.c **** *  (BUTTON_WDGT_STATUS<X>_VALUE). This function does not process the
 899:Generated_Source\PSoC4/BUTTON_Structure.c **** *  widget but extracts processed results from the \ref group_structures.
 900:Generated_Source\PSoC4/BUTTON_Structure.c **** *
 901:Generated_Source\PSoC4/BUTTON_Structure.c **** * \param widgetId
 902:Generated_Source\PSoC4/BUTTON_Structure.c **** *  Specifies the ID number of the widget to get its status.
 903:Generated_Source\PSoC4/BUTTON_Structure.c **** *  A macro for the widget ID can be found in the BUTTON Configuration header
 904:Generated_Source\PSoC4/BUTTON_Structure.c **** *  file defined as BUTTON_<WidgetName>_WDGT_ID.
 905:Generated_Source\PSoC4/BUTTON_Structure.c **** *
 906:Generated_Source\PSoC4/BUTTON_Structure.c **** * \return
 907:Generated_Source\PSoC4/BUTTON_Structure.c **** *  Returns the touch detection status of the specified widgets:
 908:Generated_Source\PSoC4/BUTTON_Structure.c **** *    - Zero - No touch is detected in the specified widget or a wrong widgetId
 909:Generated_Source\PSoC4/BUTTON_Structure.c **** *      is specified.
 910:Generated_Source\PSoC4/BUTTON_Structure.c **** *    - Non-zero if at least one sensor of the specified widget is active, i.e.
 911:Generated_Source\PSoC4/BUTTON_Structure.c **** *      a touch is detected.
 912:Generated_Source\PSoC4/BUTTON_Structure.c **** *
 913:Generated_Source\PSoC4/BUTTON_Structure.c **** *******************************************************************************/
 914:Generated_Source\PSoC4/BUTTON_Structure.c **** uint32 BUTTON_IsWidgetActive(uint32 widgetId)
 915:Generated_Source\PSoC4/BUTTON_Structure.c **** {
 516              		.loc 1 915 0
 517              		.cfi_startproc
 518              		@ args = 0, pretend = 0, frame = 0
 519              		@ frame_needed = 0, uses_anonymous_args = 0
 520              		@ link register save eliminated.
 521              	.LVL55:
 916:Generated_Source\PSoC4/BUTTON_Structure.c ****     uint32 result = 0Lu;
 917:Generated_Source\PSoC4/BUTTON_Structure.c **** 
 918:Generated_Source\PSoC4/BUTTON_Structure.c ****     if (widgetId < BUTTON_TOTAL_WIDGETS)
 522              		.loc 1 918 0
 523 0000 0028     		cmp	r0, #0
 524 0002 0BD1     		bne	.L48
 919:Generated_Source\PSoC4/BUTTON_Structure.c ****     {
 920:Generated_Source\PSoC4/BUTTON_Structure.c ****         result = BUTTON_GET_WIDGET_ACTIVE_STATUS(widgetId);
 525              		.loc 1 920 0
 526 0004 1F23     		movs	r3, #31
 527 0006 0340     		ands	r3, r0
 528 0008 0122     		movs	r2, #1
 529 000a 9A40     		lsls	r2, r2, r3
 530 000c 4009     		lsrs	r0, r0, #5
 531              	.LVL56:
ARM GAS  C:\Users\Lenovo\AppData\Local\Temp\cce7OzAT.s 			page 27


 532 000e 031D     		adds	r3, r0, #4
 533 0010 9B00     		lsls	r3, r3, #2
 534 0012 0348     		ldr	r0, .L49
 535 0014 C318     		adds	r3, r0, r3
 536 0016 5868     		ldr	r0, [r3, #4]
 537 0018 1040     		ands	r0, r2
 538              	.LVL57:
 539 001a 00E0     		b	.L47
 540              	.LVL58:
 541              	.L48:
 916:Generated_Source\PSoC4/BUTTON_Structure.c ****     uint32 result = 0Lu;
 542              		.loc 1 916 0
 543 001c 0020     		movs	r0, #0
 544              	.LVL59:
 545              	.L47:
 921:Generated_Source\PSoC4/BUTTON_Structure.c ****     }
 922:Generated_Source\PSoC4/BUTTON_Structure.c ****     return result;
 923:Generated_Source\PSoC4/BUTTON_Structure.c **** }
 546              		.loc 1 923 0
 547              		@ sp needed
 548 001e 7047     		bx	lr
 549              	.L50:
 550              		.align	2
 551              	.L49:
 552 0020 00000000 		.word	BUTTON_dsRam
 553              		.cfi_endproc
 554              	.LFE6:
 555              		.size	BUTTON_IsWidgetActive, .-BUTTON_IsWidgetActive
 556              		.section	.text.BUTTON_IsSensorActive,"ax",%progbits
 557              		.align	2
 558              		.global	BUTTON_IsSensorActive
 559              		.code	16
 560              		.thumb_func
 561              		.type	BUTTON_IsSensorActive, %function
 562              	BUTTON_IsSensorActive:
 563              	.LFB7:
 924:Generated_Source\PSoC4/BUTTON_Structure.c **** 
 925:Generated_Source\PSoC4/BUTTON_Structure.c **** 
 926:Generated_Source\PSoC4/BUTTON_Structure.c **** /*******************************************************************************
 927:Generated_Source\PSoC4/BUTTON_Structure.c **** * Function Name: BUTTON_IsSensorActive
 928:Generated_Source\PSoC4/BUTTON_Structure.c **** ****************************************************************************//**
 929:Generated_Source\PSoC4/BUTTON_Structure.c **** *
 930:Generated_Source\PSoC4/BUTTON_Structure.c **** * \brief
 931:Generated_Source\PSoC4/BUTTON_Structure.c **** *  Reports if the specified sensor in the widget detects a touch.
 932:Generated_Source\PSoC4/BUTTON_Structure.c **** *
 933:Generated_Source\PSoC4/BUTTON_Structure.c **** * \details
 934:Generated_Source\PSoC4/BUTTON_Structure.c **** *  This function reports if the specified sensor in the widget has detected a
 935:Generated_Source\PSoC4/BUTTON_Structure.c **** *  touch or not by extracting information from the wdgtStatus registers
 936:Generated_Source\PSoC4/BUTTON_Structure.c **** *  (BUTTON_WDGT_STATUS<X>_VALUE). This function does not process the
 937:Generated_Source\PSoC4/BUTTON_Structure.c **** *  widget or sensor but extracts processed results from the \ref group_structures.
 938:Generated_Source\PSoC4/BUTTON_Structure.c **** *
 939:Generated_Source\PSoC4/BUTTON_Structure.c **** *  For proximity sensors, this function returns the proximity detection status. To
 940:Generated_Source\PSoC4/BUTTON_Structure.c **** *  get the finger touch status of proximity sensors, use the
 941:Generated_Source\PSoC4/BUTTON_Structure.c **** *  BUTTON_IsProximitySensorActive() function.
 942:Generated_Source\PSoC4/BUTTON_Structure.c **** *
 943:Generated_Source\PSoC4/BUTTON_Structure.c **** * \param widgetId
 944:Generated_Source\PSoC4/BUTTON_Structure.c **** *  Specifies the ID number of the widget.
ARM GAS  C:\Users\Lenovo\AppData\Local\Temp\cce7OzAT.s 			page 28


 945:Generated_Source\PSoC4/BUTTON_Structure.c **** *  A macro for the widget ID can be found in the BUTTON Configuration header
 946:Generated_Source\PSoC4/BUTTON_Structure.c **** *  file defined as BUTTON_<WidgetName>_WDGT_ID.
 947:Generated_Source\PSoC4/BUTTON_Structure.c **** 
 948:Generated_Source\PSoC4/BUTTON_Structure.c **** * \param sensorId
 949:Generated_Source\PSoC4/BUTTON_Structure.c **** *  Specifies the ID number of the sensor within the widget to get its touch
 950:Generated_Source\PSoC4/BUTTON_Structure.c **** *  detection status.
 951:Generated_Source\PSoC4/BUTTON_Structure.c **** *  A macro for the sensor ID within the specified widget can be found in the
 952:Generated_Source\PSoC4/BUTTON_Structure.c **** *  BUTTON Configuration header file defined as
 953:Generated_Source\PSoC4/BUTTON_Structure.c **** *  BUTTON_<WidgetName>_SNS<SensorNumber>_ID.
 954:Generated_Source\PSoC4/BUTTON_Structure.c **** *
 955:Generated_Source\PSoC4/BUTTON_Structure.c **** * \return
 956:Generated_Source\PSoC4/BUTTON_Structure.c **** *  Returns the touch detection status of the specified sensor / widget:
 957:Generated_Source\PSoC4/BUTTON_Structure.c **** *    - Zero if no touch is detected in the specified sensor / widget or a wrong
 958:Generated_Source\PSoC4/BUTTON_Structure.c **** *      widget ID / sensor ID is specified.
 959:Generated_Source\PSoC4/BUTTON_Structure.c **** *    - Non-zero if the specified sensor is active i.e. touch is detected. If the
 960:Generated_Source\PSoC4/BUTTON_Structure.c **** *      specific sensor belongs to a proximity widget, the proximity detection
 961:Generated_Source\PSoC4/BUTTON_Structure.c **** *      status is returned.
 962:Generated_Source\PSoC4/BUTTON_Structure.c **** *
 963:Generated_Source\PSoC4/BUTTON_Structure.c **** *******************************************************************************/
 964:Generated_Source\PSoC4/BUTTON_Structure.c **** uint32 BUTTON_IsSensorActive(uint32 widgetId, uint32 sensorId)
 965:Generated_Source\PSoC4/BUTTON_Structure.c **** {
 564              		.loc 1 965 0
 565              		.cfi_startproc
 566              		@ args = 0, pretend = 0, frame = 0
 567              		@ frame_needed = 0, uses_anonymous_args = 0
 568              		@ link register save eliminated.
 569              	.LVL60:
 966:Generated_Source\PSoC4/BUTTON_Structure.c ****     uint32 result = 0Lu;
 967:Generated_Source\PSoC4/BUTTON_Structure.c **** 
 968:Generated_Source\PSoC4/BUTTON_Structure.c ****     if ((widgetId < BUTTON_TOTAL_WIDGETS) &&
 570              		.loc 1 968 0
 571 0000 0028     		cmp	r0, #0
 572 0002 0CD1     		bne	.L53
 969:Generated_Source\PSoC4/BUTTON_Structure.c ****         (sensorId < BUTTON_GET_SENSOR_COUNT(widgetId)))
 573              		.loc 1 969 0 discriminator 1
 574 0004 4301     		lsls	r3, r0, #5
 575 0006 084A     		ldr	r2, .L55
 576 0008 D318     		adds	r3, r2, r3
 577 000a 9B8B     		ldrh	r3, [r3, #28]
 968:Generated_Source\PSoC4/BUTTON_Structure.c ****         (sensorId < BUTTON_GET_SENSOR_COUNT(widgetId)))
 578              		.loc 1 968 0 discriminator 1
 579 000c 8B42     		cmp	r3, r1
 580 000e 08D9     		bls	.L54
 970:Generated_Source\PSoC4/BUTTON_Structure.c ****     {
 971:Generated_Source\PSoC4/BUTTON_Structure.c ****         #if (BUTTON_ENABLE == BUTTON_PROXIMITY_WIDGET_EN)
 972:Generated_Source\PSoC4/BUTTON_Structure.c ****             if (BUTTON_WD_PROXIMITY_E ==
 973:Generated_Source\PSoC4/BUTTON_Structure.c ****                 (BUTTON_WD_TYPE_ENUM)BUTTON_dsFlash.wdgtArray[widgetId].wdgtType)
 974:Generated_Source\PSoC4/BUTTON_Structure.c ****             {
 975:Generated_Source\PSoC4/BUTTON_Structure.c ****                 sensorId = BUTTON_PROX_STS_OFFSET(sensorId);
 976:Generated_Source\PSoC4/BUTTON_Structure.c ****             }
 977:Generated_Source\PSoC4/BUTTON_Structure.c ****         #endif /* (BUTTON_ENABLE != BUTTON_PROXIMITY_WIDGET_EN) */
 978:Generated_Source\PSoC4/BUTTON_Structure.c ****         result = BUTTON_dsRam.snsStatus[widgetId] & (1Lu << sensorId);
 581              		.loc 1 978 0
 582 0010 064B     		ldr	r3, .L55+4
 583 0012 1818     		adds	r0, r3, r0
 584              	.LVL61:
 585 0014 037E     		ldrb	r3, [r0, #24]
ARM GAS  C:\Users\Lenovo\AppData\Local\Temp\cce7OzAT.s 			page 29


 586 0016 0120     		movs	r0, #1
 587 0018 8840     		lsls	r0, r0, r1
 588 001a 1840     		ands	r0, r3
 589              	.LVL62:
 590 001c 02E0     		b	.L52
 591              	.LVL63:
 592              	.L53:
 966:Generated_Source\PSoC4/BUTTON_Structure.c **** 
 593              		.loc 1 966 0
 594 001e 0020     		movs	r0, #0
 595              	.LVL64:
 596 0020 00E0     		b	.L52
 597              	.LVL65:
 598              	.L54:
 599 0022 0020     		movs	r0, #0
 600              	.LVL66:
 601              	.L52:
 979:Generated_Source\PSoC4/BUTTON_Structure.c ****     }
 980:Generated_Source\PSoC4/BUTTON_Structure.c **** 
 981:Generated_Source\PSoC4/BUTTON_Structure.c ****     return result;
 982:Generated_Source\PSoC4/BUTTON_Structure.c **** }
 602              		.loc 1 982 0
 603              		@ sp needed
 604 0024 7047     		bx	lr
 605              	.L56:
 606 0026 C046     		.align	2
 607              	.L55:
 608 0028 00000000 		.word	.LANCHOR0
 609 002c 00000000 		.word	BUTTON_dsRam
 610              		.cfi_endproc
 611              	.LFE7:
 612              		.size	BUTTON_IsSensorActive, .-BUTTON_IsSensorActive
 613              		.global	BUTTON_ramIdacInit
 614              		.global	BUTTON_ramWidgetInit
 615              		.global	BUTTON_shieldIoList
 616              		.global	BUTTON_ioList
 617              		.global	BUTTON_dsFlash
 618              		.comm	BUTTON_dsRam,68,4
 619              		.section	.rodata
 620              		.align	2
 621              		.set	.LANCHOR0,. + 0
 622              		.type	BUTTON_ramIdacInit, %object
 623              		.size	BUTTON_ramIdacInit, 1
 624              	BUTTON_ramIdacInit:
 625 0000 20       		.byte	32
 626 0001 000000   		.space	3
 627              		.type	BUTTON_dsFlash, %object
 628              		.size	BUTTON_dsFlash, 32
 629              	BUTTON_dsFlash:
 630 0004 00000000 		.word	BUTTON_ioList
 631 0008 1E000000 		.word	BUTTON_dsRam+30
 632 000c 32000000 		.word	BUTTON_dsRam+50
 633 0010 00000000 		.word	0
 634 0014 0C000000 		.word	BUTTON_debounceButton0
 635 0018 01280000 		.word	10241
 636 001c 0100     		.short	1
 637 001e 01       		.byte	1
ARM GAS  C:\Users\Lenovo\AppData\Local\Temp\cce7OzAT.s 			page 30


 638 001f 01       		.byte	1
 639 0020 00000000 		.word	BUTTON_noiseEnvlpButton0
 640              		.type	BUTTON_ramWidgetInit, %object
 641              		.size	BUTTON_ramWidgetInit, 20
 642              	BUTTON_ramWidgetInit:
 643 0024 0C00     		.short	12
 644 0026 6400     		.short	100
 645 0028 28       		.byte	40
 646 0029 28       		.byte	40
 647 002a 0A       		.byte	10
 648 002b 03       		.byte	3
 649 002c 1E       		.byte	30
 650 002d 20       		.byte	32
 651 002e 05       		.byte	5
 652 002f 00       		.space	1
 653 0030 0400     		.short	4
 654 0032 00       		.byte	0
 655 0033 00       		.space	1
 656 0034 A000     		.short	160
 657 0036 0000     		.short	0
 658              		.type	BUTTON_shieldIoList, %object
 659              		.size	BUTTON_shieldIoList, 20
 660              	BUTTON_shieldIoList:
 661 0038 00040240 		.word	1073873920
 662 003c 08040440 		.word	1074005000
 663 0040 00040440 		.word	1074004992
 664 0044 F0000000 		.word	240
 665 0048 04       		.byte	4
 666 0049 01       		.byte	1
 667 004a 03       		.byte	3
 668 004b 00       		.space	1
 669              		.type	BUTTON_ioList, %object
 670              		.size	BUTTON_ioList, 28
 671              	BUTTON_ioList:
 672 004c 00000240 		.word	1073872896
 673 0050 08000440 		.word	1074003976
 674 0054 00000440 		.word	1074003968
 675 0058 04000440 		.word	1074003972
 676 005c 00F00000 		.word	61440
 677 0060 08000000 		.word	8
 678 0064 0C       		.byte	12
 679 0065 03       		.byte	3
 680 0066 09       		.byte	9
 681 0067 00       		.space	1
 682              		.bss
 683              		.align	2
 684              		.type	BUTTON_noiseEnvlpButton0, %object
 685              		.size	BUTTON_noiseEnvlpButton0, 12
 686              	BUTTON_noiseEnvlpButton0:
 687 0000 00000000 		.space	12
 687      00000000 
 687      00000000 
 688              		.type	BUTTON_debounceButton0, %object
 689              		.size	BUTTON_debounceButton0, 1
 690              	BUTTON_debounceButton0:
 691 000c 00       		.space	1
 692              		.text
ARM GAS  C:\Users\Lenovo\AppData\Local\Temp\cce7OzAT.s 			page 31


 693              	.Letext0:
 694              		.file 2 "Generated_Source\\PSoC4/cytypes.h"
 695              		.file 3 "Generated_Source\\PSoC4\\BUTTON_Configuration.h"
 696              		.file 4 "Generated_Source\\PSoC4\\BUTTON_SmartSense_LL.h"
 697              		.file 5 "Generated_Source\\PSoC4\\BUTTON_Structure.h"
 698              		.file 6 "Generated_Source\\PSoC4\\CyLib.h"